LIBRARY ISOBMFF_DLL_v142.dll
EXPORTS
    ??0?$Object@VArray@HVCC@ISOBMFF@@@PIMPL@XS@@QEAA@$$QEAV012@@Z
    ??0?$Object@VArray@HVCC@ISOBMFF@@@PIMPL@XS@@QEAA@AEBV012@@Z
    ??0?$Object@VArray@HVCC@ISOBMFF@@@PIMPL@XS@@QEAA@XZ
    ??0?$Object@VAssociation@Entry@IPMA@ISOBMFF@@@PIMPL@XS@@QEAA@$$QEAV012@@Z
    ??0?$Object@VAssociation@Entry@IPMA@ISOBMFF@@@PIMPL@XS@@QEAA@AEBV012@@Z
    ??0?$Object@VAssociation@Entry@IPMA@ISOBMFF@@@PIMPL@XS@@QEAA@XZ
    ??0?$Object@VBinaryStream@ISOBMFF@@@PIMPL@XS@@QEAA@$$QEAV012@@Z
    ??0?$Object@VBinaryStream@ISOBMFF@@@PIMPL@XS@@QEAA@AEBV012@@Z
    ??0?$Object@VBinaryStream@ISOBMFF@@@PIMPL@XS@@QEAA@XZ
    ??0?$Object@VBox@ISOBMFF@@@PIMPL@XS@@QEAA@$$QEAV012@@Z
    ??0?$Object@VBox@ISOBMFF@@@PIMPL@XS@@QEAA@AEBV012@@Z
    ??0?$Object@VBox@ISOBMFF@@@PIMPL@XS@@QEAA@XZ
    ??0?$Object@VCDSC@ISOBMFF@@@PIMPL@XS@@QEAA@$$QEAV012@@Z
    ??0?$Object@VCDSC@ISOBMFF@@@PIMPL@XS@@QEAA@AEBV012@@Z
    ??0?$Object@VCDSC@ISOBMFF@@@PIMPL@XS@@QEAA@XZ
    ??0?$Object@VCOLR@ISOBMFF@@@PIMPL@XS@@QEAA@$$QEAV012@@Z
    ??0?$Object@VCOLR@ISOBMFF@@@PIMPL@XS@@QEAA@AEBV012@@Z
    ??0?$Object@VCOLR@ISOBMFF@@@PIMPL@XS@@QEAA@XZ
    ??0?$Object@VChannel@PIXI@ISOBMFF@@@PIMPL@XS@@QEAA@$$QEAV012@@Z
    ??0?$Object@VChannel@PIXI@ISOBMFF@@@PIMPL@XS@@QEAA@AEBV012@@Z
    ??0?$Object@VChannel@PIXI@ISOBMFF@@@PIMPL@XS@@QEAA@XZ
    ??0?$Object@VContainerBox@ISOBMFF@@@PIMPL@XS@@QEAA@$$QEAV012@@Z
    ??0?$Object@VContainerBox@ISOBMFF@@@PIMPL@XS@@QEAA@AEBV012@@Z
    ??0?$Object@VContainerBox@ISOBMFF@@@PIMPL@XS@@QEAA@XZ
    ??0?$Object@VDIMG@ISOBMFF@@@PIMPL@XS@@QEAA@$$QEAV012@@Z
    ??0?$Object@VDIMG@ISOBMFF@@@PIMPL@XS@@QEAA@AEBV012@@Z
    ??0?$Object@VDIMG@ISOBMFF@@@PIMPL@XS@@QEAA@XZ
    ??0?$Object@VDREF@ISOBMFF@@@PIMPL@XS@@QEAA@$$QEAV012@@Z
    ??0?$Object@VDREF@ISOBMFF@@@PIMPL@XS@@QEAA@AEBV012@@Z
    ??0?$Object@VDREF@ISOBMFF@@@PIMPL@XS@@QEAA@XZ
    ??0?$Object@VEntry@IPMA@ISOBMFF@@@PIMPL@XS@@QEAA@$$QEAV012@@Z
    ??0?$Object@VEntry@IPMA@ISOBMFF@@@PIMPL@XS@@QEAA@AEBV012@@Z
    ??0?$Object@VEntry@IPMA@ISOBMFF@@@PIMPL@XS@@QEAA@XZ
    ??0?$Object@VExtent@Item@ILOC@ISOBMFF@@@PIMPL@XS@@QEAA@$$QEAV012@@Z
    ??0?$Object@VExtent@Item@ILOC@ISOBMFF@@@PIMPL@XS@@QEAA@AEBV012@@Z
    ??0?$Object@VExtent@Item@ILOC@ISOBMFF@@@PIMPL@XS@@QEAA@XZ
    ??0?$Object@VFRMA@ISOBMFF@@@PIMPL@XS@@QEAA@$$QEAV012@@Z
    ??0?$Object@VFRMA@ISOBMFF@@@PIMPL@XS@@QEAA@AEBV012@@Z
    ??0?$Object@VFRMA@ISOBMFF@@@PIMPL@XS@@QEAA@XZ
    ??0?$Object@VFTYP@ISOBMFF@@@PIMPL@XS@@QEAA@$$QEAV012@@Z
    ??0?$Object@VFTYP@ISOBMFF@@@PIMPL@XS@@QEAA@AEBV012@@Z
    ??0?$Object@VFTYP@ISOBMFF@@@PIMPL@XS@@QEAA@XZ
    ??0?$Object@VFile@ISOBMFF@@@PIMPL@XS@@QEAA@$$QEAV012@@Z
    ??0?$Object@VFile@ISOBMFF@@@PIMPL@XS@@QEAA@AEBV012@@Z
    ??0?$Object@VFile@ISOBMFF@@@PIMPL@XS@@QEAA@XZ
    ??0?$Object@VFullBox@ISOBMFF@@@PIMPL@XS@@QEAA@$$QEAV012@@Z
    ??0?$Object@VFullBox@ISOBMFF@@@PIMPL@XS@@QEAA@AEBV012@@Z
    ??0?$Object@VFullBox@ISOBMFF@@@PIMPL@XS@@QEAA@XZ
    ??0?$Object@VHDLR@ISOBMFF@@@PIMPL@XS@@QEAA@$$QEAV012@@Z
    ??0?$Object@VHDLR@ISOBMFF@@@PIMPL@XS@@QEAA@AEBV012@@Z
    ??0?$Object@VHDLR@ISOBMFF@@@PIMPL@XS@@QEAA@XZ
    ??0?$Object@VHVCC@ISOBMFF@@@PIMPL@XS@@QEAA@$$QEAV012@@Z
    ??0?$Object@VHVCC@ISOBMFF@@@PIMPL@XS@@QEAA@AEBV012@@Z
    ??0?$Object@VHVCC@ISOBMFF@@@PIMPL@XS@@QEAA@XZ
    ??0?$Object@VIINF@ISOBMFF@@@PIMPL@XS@@QEAA@$$QEAV012@@Z
    ??0?$Object@VIINF@ISOBMFF@@@PIMPL@XS@@QEAA@AEBV012@@Z
    ??0?$Object@VIINF@ISOBMFF@@@PIMPL@XS@@QEAA@XZ
    ??0?$Object@VILOC@ISOBMFF@@@PIMPL@XS@@QEAA@$$QEAV012@@Z
    ??0?$Object@VILOC@ISOBMFF@@@PIMPL@XS@@QEAA@AEBV012@@Z
    ??0?$Object@VILOC@ISOBMFF@@@PIMPL@XS@@QEAA@XZ
    ??0?$Object@VINFE@ISOBMFF@@@PIMPL@XS@@QEAA@$$QEAV012@@Z
    ??0?$Object@VINFE@ISOBMFF@@@PIMPL@XS@@QEAA@AEBV012@@Z
    ??0?$Object@VINFE@ISOBMFF@@@PIMPL@XS@@QEAA@XZ
    ??0?$Object@VIPMA@ISOBMFF@@@PIMPL@XS@@QEAA@$$QEAV012@@Z
    ??0?$Object@VIPMA@ISOBMFF@@@PIMPL@XS@@QEAA@AEBV012@@Z
    ??0?$Object@VIPMA@ISOBMFF@@@PIMPL@XS@@QEAA@XZ
    ??0?$Object@VIREF@ISOBMFF@@@PIMPL@XS@@QEAA@$$QEAV012@@Z
    ??0?$Object@VIREF@ISOBMFF@@@PIMPL@XS@@QEAA@AEBV012@@Z
    ??0?$Object@VIREF@ISOBMFF@@@PIMPL@XS@@QEAA@XZ
    ??0?$Object@VIROT@ISOBMFF@@@PIMPL@XS@@QEAA@$$QEAV012@@Z
    ??0?$Object@VIROT@ISOBMFF@@@PIMPL@XS@@QEAA@AEBV012@@Z
    ??0?$Object@VIROT@ISOBMFF@@@PIMPL@XS@@QEAA@XZ
    ??0?$Object@VISPE@ISOBMFF@@@PIMPL@XS@@QEAA@$$QEAV012@@Z
    ??0?$Object@VISPE@ISOBMFF@@@PIMPL@XS@@QEAA@AEBV012@@Z
    ??0?$Object@VISPE@ISOBMFF@@@PIMPL@XS@@QEAA@XZ
    ??0?$Object@VImageGrid@ISOBMFF@@@PIMPL@XS@@QEAA@$$QEAV012@@Z
    ??0?$Object@VImageGrid@ISOBMFF@@@PIMPL@XS@@QEAA@AEBV012@@Z
    ??0?$Object@VImageGrid@ISOBMFF@@@PIMPL@XS@@QEAA@XZ
    ??0?$Object@VItem@ILOC@ISOBMFF@@@PIMPL@XS@@QEAA@$$QEAV012@@Z
    ??0?$Object@VItem@ILOC@ISOBMFF@@@PIMPL@XS@@QEAA@AEBV012@@Z
    ??0?$Object@VItem@ILOC@ISOBMFF@@@PIMPL@XS@@QEAA@XZ
    ??0?$Object@VMETA@ISOBMFF@@@PIMPL@XS@@QEAA@$$QEAV012@@Z
    ??0?$Object@VMETA@ISOBMFF@@@PIMPL@XS@@QEAA@AEBV012@@Z
    ??0?$Object@VMETA@ISOBMFF@@@PIMPL@XS@@QEAA@XZ
    ??0?$Object@VMVHD@ISOBMFF@@@PIMPL@XS@@QEAA@$$QEAV012@@Z
    ??0?$Object@VMVHD@ISOBMFF@@@PIMPL@XS@@QEAA@AEBV012@@Z
    ??0?$Object@VMVHD@ISOBMFF@@@PIMPL@XS@@QEAA@XZ
    ??0?$Object@VMatrix@ISOBMFF@@@PIMPL@XS@@QEAA@$$QEAV012@@Z
    ??0?$Object@VMatrix@ISOBMFF@@@PIMPL@XS@@QEAA@AEBV012@@Z
    ??0?$Object@VMatrix@ISOBMFF@@@PIMPL@XS@@QEAA@XZ
    ??0?$Object@VNALUnit@Array@HVCC@ISOBMFF@@@PIMPL@XS@@QEAA@$$QEAV012@@Z
    ??0?$Object@VNALUnit@Array@HVCC@ISOBMFF@@@PIMPL@XS@@QEAA@AEBV012@@Z
    ??0?$Object@VNALUnit@Array@HVCC@ISOBMFF@@@PIMPL@XS@@QEAA@XZ
    ??0?$Object@VPITM@ISOBMFF@@@PIMPL@XS@@QEAA@$$QEAV012@@Z
    ??0?$Object@VPITM@ISOBMFF@@@PIMPL@XS@@QEAA@AEBV012@@Z
    ??0?$Object@VPITM@ISOBMFF@@@PIMPL@XS@@QEAA@XZ
    ??0?$Object@VPIXI@ISOBMFF@@@PIMPL@XS@@QEAA@$$QEAV012@@Z
    ??0?$Object@VPIXI@ISOBMFF@@@PIMPL@XS@@QEAA@AEBV012@@Z
    ??0?$Object@VPIXI@ISOBMFF@@@PIMPL@XS@@QEAA@XZ
    ??0?$Object@VParser@ISOBMFF@@@PIMPL@XS@@QEAA@$$QEAV012@@Z
    ??0?$Object@VParser@ISOBMFF@@@PIMPL@XS@@QEAA@AEBV012@@Z
    ??0?$Object@VParser@ISOBMFF@@@PIMPL@XS@@QEAA@XZ
    ??0?$Object@VSCHM@ISOBMFF@@@PIMPL@XS@@QEAA@$$QEAV012@@Z
    ??0?$Object@VSCHM@ISOBMFF@@@PIMPL@XS@@QEAA@AEBV012@@Z
    ??0?$Object@VSCHM@ISOBMFF@@@PIMPL@XS@@QEAA@XZ
    ??0?$Object@VSTSD@ISOBMFF@@@PIMPL@XS@@QEAA@$$QEAV012@@Z
    ??0?$Object@VSTSD@ISOBMFF@@@PIMPL@XS@@QEAA@AEBV012@@Z
    ??0?$Object@VSTSD@ISOBMFF@@@PIMPL@XS@@QEAA@XZ
    ??0?$Object@VSingleItemTypeReferenceBox@ISOBMFF@@@PIMPL@XS@@QEAA@$$QEAV012@@Z
    ??0?$Object@VSingleItemTypeReferenceBox@ISOBMFF@@@PIMPL@XS@@QEAA@AEBV012@@Z
    ??0?$Object@VSingleItemTypeReferenceBox@ISOBMFF@@@PIMPL@XS@@QEAA@XZ
    ??0?$Object@VTHMB@ISOBMFF@@@PIMPL@XS@@QEAA@$$QEAV012@@Z
    ??0?$Object@VTHMB@ISOBMFF@@@PIMPL@XS@@QEAA@AEBV012@@Z
    ??0?$Object@VTHMB@ISOBMFF@@@PIMPL@XS@@QEAA@XZ
    ??0?$Object@VTKHD@ISOBMFF@@@PIMPL@XS@@QEAA@$$QEAV012@@Z
    ??0?$Object@VTKHD@ISOBMFF@@@PIMPL@XS@@QEAA@AEBV012@@Z
    ??0?$Object@VTKHD@ISOBMFF@@@PIMPL@XS@@QEAA@XZ
    ??0?$Object@VURL@ISOBMFF@@@PIMPL@XS@@QEAA@$$QEAV012@@Z
    ??0?$Object@VURL@ISOBMFF@@@PIMPL@XS@@QEAA@AEBV012@@Z
    ??0?$Object@VURL@ISOBMFF@@@PIMPL@XS@@QEAA@XZ
    ??0?$Object@VURN@ISOBMFF@@@PIMPL@XS@@QEAA@$$QEAV012@@Z
    ??0?$Object@VURN@ISOBMFF@@@PIMPL@XS@@QEAA@AEBV012@@Z
    ??0?$Object@VURN@ISOBMFF@@@PIMPL@XS@@QEAA@XZ
    ??0Array@HVCC@ISOBMFF@@QEAA@$$QEAV012@@Z
    ??0Array@HVCC@ISOBMFF@@QEAA@AEAVBinaryStream@2@@Z
    ??0Array@HVCC@ISOBMFF@@QEAA@AEBV012@@Z
    ??0Array@HVCC@ISOBMFF@@QEAA@XZ
    ??0Association@Entry@IPMA@ISOBMFF@@QEAA@$$QEAV0123@@Z
    ??0Association@Entry@IPMA@ISOBMFF@@QEAA@AEAVBinaryStream@3@AEBV23@@Z
    ??0Association@Entry@IPMA@ISOBMFF@@QEAA@AEBV0123@@Z
    ??0Association@Entry@IPMA@ISOBMFF@@QEAA@XZ
    ??0BinaryStream@ISOBMFF@@QEAA@$$QEAV01@@Z
    ??0BinaryStream@ISOBMFF@@QEAA@AEAV01@_K@Z
    ??0BinaryStream@ISOBMFF@@QEAA@AEBV01@@Z
    ??0BinaryStream@ISOBMFF@@QEAA@AEBV?$basic_string@DU?$char_traits@D@std@@V?$allocator@D@2@@std@@@Z
    ??0BinaryStream@ISOBMFF@@QEAA@AEBV?$vector@EV?$allocator@E@std@@@std@@@Z
    ??0BinaryStream@ISOBMFF@@QEAA@XZ
    ??0Box@ISOBMFF@@QEAA@$$QEAV01@@Z
    ??0Box@ISOBMFF@@QEAA@AEBV01@@Z
    ??0Box@ISOBMFF@@QEAA@AEBV?$basic_string@DU?$char_traits@D@std@@V?$allocator@D@2@@std@@@Z
    ??0CDSC@ISOBMFF@@QEAA@$$QEAV01@@Z
    ??0CDSC@ISOBMFF@@QEAA@AEBV01@@Z
    ??0CDSC@ISOBMFF@@QEAA@XZ
    ??0COLR@ISOBMFF@@QEAA@$$QEAV01@@Z
    ??0COLR@ISOBMFF@@QEAA@AEBV01@@Z
    ??0COLR@ISOBMFF@@QEAA@XZ
    ??0Channel@PIXI@ISOBMFF@@QEAA@$$QEAV012@@Z
    ??0Channel@PIXI@ISOBMFF@@QEAA@AEAVBinaryStream@2@@Z
    ??0Channel@PIXI@ISOBMFF@@QEAA@AEBV012@@Z
    ??0Channel@PIXI@ISOBMFF@@QEAA@XZ
    ??0Container@ISOBMFF@@QEAA@AEBV01@@Z
    ??0Container@ISOBMFF@@QEAA@XZ
    ??0ContainerBox@ISOBMFF@@QEAA@$$QEAV01@@Z
    ??0ContainerBox@ISOBMFF@@QEAA@AEBV01@@Z
    ??0ContainerBox@ISOBMFF@@QEAA@AEBV?$basic_string@DU?$char_traits@D@std@@V?$allocator@D@2@@std@@@Z
    ??0DIMG@ISOBMFF@@QEAA@$$QEAV01@@Z
    ??0DIMG@ISOBMFF@@QEAA@AEBV01@@Z
    ??0DIMG@ISOBMFF@@QEAA@XZ
    ??0DREF@ISOBMFF@@QEAA@$$QEAV01@@Z
    ??0DREF@ISOBMFF@@QEAA@AEBV01@@Z
    ??0DREF@ISOBMFF@@QEAA@XZ
    ??0DisplayableObject@ISOBMFF@@QEAA@AEBV01@@Z
    ??0DisplayableObject@ISOBMFF@@QEAA@XZ
    ??0DisplayableObjectContainer@ISOBMFF@@QEAA@AEBV01@@Z
    ??0DisplayableObjectContainer@ISOBMFF@@QEAA@XZ
    ??0Entry@IPMA@ISOBMFF@@QEAA@$$QEAV012@@Z
    ??0Entry@IPMA@ISOBMFF@@QEAA@AEAVBinaryStream@2@AEBV12@@Z
    ??0Entry@IPMA@ISOBMFF@@QEAA@AEBV012@@Z
    ??0Entry@IPMA@ISOBMFF@@QEAA@XZ
    ??0Extent@Item@ILOC@ISOBMFF@@QEAA@$$QEAV0123@@Z
    ??0Extent@Item@ILOC@ISOBMFF@@QEAA@AEAVBinaryStream@3@AEBV23@@Z
    ??0Extent@Item@ILOC@ISOBMFF@@QEAA@AEBV0123@@Z
    ??0Extent@Item@ILOC@ISOBMFF@@QEAA@XZ
    ??0FRMA@ISOBMFF@@QEAA@$$QEAV01@@Z
    ??0FRMA@ISOBMFF@@QEAA@AEBV01@@Z
    ??0FRMA@ISOBMFF@@QEAA@XZ
    ??0FTYP@ISOBMFF@@QEAA@$$QEAV01@@Z
    ??0FTYP@ISOBMFF@@QEAA@AEBV01@@Z
    ??0FTYP@ISOBMFF@@QEAA@XZ
    ??0File@ISOBMFF@@QEAA@$$QEAV01@@Z
    ??0File@ISOBMFF@@QEAA@AEBV01@@Z
    ??0File@ISOBMFF@@QEAA@XZ
    ??0FullBox@ISOBMFF@@QEAA@$$QEAV01@@Z
    ??0FullBox@ISOBMFF@@QEAA@AEBV01@@Z
    ??0FullBox@ISOBMFF@@QEAA@AEBV?$basic_string@DU?$char_traits@D@std@@V?$allocator@D@2@@std@@@Z
    ??0HDLR@ISOBMFF@@QEAA@$$QEAV01@@Z
    ??0HDLR@ISOBMFF@@QEAA@AEBV01@@Z
    ??0HDLR@ISOBMFF@@QEAA@XZ
    ??0HVCC@ISOBMFF@@QEAA@$$QEAV01@@Z
    ??0HVCC@ISOBMFF@@QEAA@AEBV01@@Z
    ??0HVCC@ISOBMFF@@QEAA@XZ
    ??0IINF@ISOBMFF@@QEAA@$$QEAV01@@Z
    ??0IINF@ISOBMFF@@QEAA@AEBV01@@Z
    ??0IINF@ISOBMFF@@QEAA@XZ
    ??0ILOC@ISOBMFF@@QEAA@$$QEAV01@@Z
    ??0ILOC@ISOBMFF@@QEAA@AEBV01@@Z
    ??0ILOC@ISOBMFF@@QEAA@XZ
    ??0INFE@ISOBMFF@@QEAA@$$QEAV01@@Z
    ??0INFE@ISOBMFF@@QEAA@AEBV01@@Z
    ??0INFE@ISOBMFF@@QEAA@XZ
    ??0IPCO@ISOBMFF@@QEAA@$$QEAV01@@Z
    ??0IPCO@ISOBMFF@@QEAA@AEBV01@@Z
    ??0IPCO@ISOBMFF@@QEAA@XZ
    ??0IPMA@ISOBMFF@@QEAA@$$QEAV01@@Z
    ??0IPMA@ISOBMFF@@QEAA@AEBV01@@Z
    ??0IPMA@ISOBMFF@@QEAA@XZ
    ??0IREF@ISOBMFF@@QEAA@$$QEAV01@@Z
    ??0IREF@ISOBMFF@@QEAA@AEBV01@@Z
    ??0IREF@ISOBMFF@@QEAA@XZ
    ??0IROT@ISOBMFF@@QEAA@$$QEAV01@@Z
    ??0IROT@ISOBMFF@@QEAA@AEBV01@@Z
    ??0IROT@ISOBMFF@@QEAA@XZ
    ??0ISPE@ISOBMFF@@QEAA@$$QEAV01@@Z
    ??0ISPE@ISOBMFF@@QEAA@AEBV01@@Z
    ??0ISPE@ISOBMFF@@QEAA@XZ
    ??0ImageGrid@ISOBMFF@@QEAA@$$QEAV01@@Z
    ??0ImageGrid@ISOBMFF@@QEAA@AEAVBinaryStream@1@@Z
    ??0ImageGrid@ISOBMFF@@QEAA@AEBV01@@Z
    ??0ImageGrid@ISOBMFF@@QEAA@XZ
    ??0Item@ILOC@ISOBMFF@@QEAA@$$QEAV012@@Z
    ??0Item@ILOC@ISOBMFF@@QEAA@AEAVBinaryStream@2@AEBV12@@Z
    ??0Item@ILOC@ISOBMFF@@QEAA@AEBV012@@Z
    ??0Item@ILOC@ISOBMFF@@QEAA@XZ
    ??0META@ISOBMFF@@QEAA@$$QEAV01@@Z
    ??0META@ISOBMFF@@QEAA@AEBV01@@Z
    ??0META@ISOBMFF@@QEAA@XZ
    ??0MVHD@ISOBMFF@@QEAA@$$QEAV01@@Z
    ??0MVHD@ISOBMFF@@QEAA@AEBV01@@Z
    ??0MVHD@ISOBMFF@@QEAA@XZ
    ??0Matrix@ISOBMFF@@QEAA@$$QEAV01@@Z
    ??0Matrix@ISOBMFF@@QEAA@AEBV01@@Z
    ??0Matrix@ISOBMFF@@QEAA@IIIIIIIII@Z
    ??0Matrix@ISOBMFF@@QEAA@XZ
    ??0NALUnit@Array@HVCC@ISOBMFF@@QEAA@$$QEAV0123@@Z
    ??0NALUnit@Array@HVCC@ISOBMFF@@QEAA@AEAVBinaryStream@3@@Z
    ??0NALUnit@Array@HVCC@ISOBMFF@@QEAA@AEBV0123@@Z
    ??0NALUnit@Array@HVCC@ISOBMFF@@QEAA@XZ
    ??0PITM@ISOBMFF@@QEAA@$$QEAV01@@Z
    ??0PITM@ISOBMFF@@QEAA@AEBV01@@Z
    ??0PITM@ISOBMFF@@QEAA@XZ
    ??0PIXI@ISOBMFF@@QEAA@$$QEAV01@@Z
    ??0PIXI@ISOBMFF@@QEAA@AEBV01@@Z
    ??0PIXI@ISOBMFF@@QEAA@XZ
    ??0Parser@ISOBMFF@@QEAA@$$QEAV01@@Z
    ??0Parser@ISOBMFF@@QEAA@AEBV01@@Z
    ??0Parser@ISOBMFF@@QEAA@AEBV?$basic_string@DU?$char_traits@D@std@@V?$allocator@D@2@@std@@@Z
    ??0Parser@ISOBMFF@@QEAA@XZ
    ??0SCHM@ISOBMFF@@QEAA@$$QEAV01@@Z
    ??0SCHM@ISOBMFF@@QEAA@AEBV01@@Z
    ??0SCHM@ISOBMFF@@QEAA@XZ
    ??0STSD@ISOBMFF@@QEAA@$$QEAV01@@Z
    ??0STSD@ISOBMFF@@QEAA@AEBV01@@Z
    ??0STSD@ISOBMFF@@QEAA@XZ
    ??0SingleItemTypeReferenceBox@ISOBMFF@@QEAA@$$QEAV01@@Z
    ??0SingleItemTypeReferenceBox@ISOBMFF@@QEAA@AEBV01@@Z
    ??0SingleItemTypeReferenceBox@ISOBMFF@@QEAA@AEBV?$basic_string@DU?$char_traits@D@std@@V?$allocator@D@2@@std@@@Z
    ??0THMB@ISOBMFF@@QEAA@$$QEAV01@@Z
    ??0THMB@ISOBMFF@@QEAA@AEBV01@@Z
    ??0THMB@ISOBMFF@@QEAA@XZ
    ??0TKHD@ISOBMFF@@QEAA@$$QEAV01@@Z
    ??0TKHD@ISOBMFF@@QEAA@AEBV01@@Z
    ??0TKHD@ISOBMFF@@QEAA@XZ
    ??0URL@ISOBMFF@@QEAA@$$QEAV01@@Z
    ??0URL@ISOBMFF@@QEAA@AEBV01@@Z
    ??0URL@ISOBMFF@@QEAA@XZ
    ??0URN@ISOBMFF@@QEAA@$$QEAV01@@Z
    ??0URN@ISOBMFF@@QEAA@AEBV01@@Z
    ??0URN@ISOBMFF@@QEAA@XZ
    ??1?$Object@VArray@HVCC@ISOBMFF@@@PIMPL@XS@@UEAA@XZ
    ??1?$Object@VAssociation@Entry@IPMA@ISOBMFF@@@PIMPL@XS@@UEAA@XZ
    ??1?$Object@VBinaryStream@ISOBMFF@@@PIMPL@XS@@UEAA@XZ
    ??1?$Object@VBox@ISOBMFF@@@PIMPL@XS@@UEAA@XZ
    ??1?$Object@VCDSC@ISOBMFF@@@PIMPL@XS@@UEAA@XZ
    ??1?$Object@VCOLR@ISOBMFF@@@PIMPL@XS@@UEAA@XZ
    ??1?$Object@VChannel@PIXI@ISOBMFF@@@PIMPL@XS@@UEAA@XZ
    ??1?$Object@VContainerBox@ISOBMFF@@@PIMPL@XS@@UEAA@XZ
    ??1?$Object@VDIMG@ISOBMFF@@@PIMPL@XS@@UEAA@XZ
    ??1?$Object@VDREF@ISOBMFF@@@PIMPL@XS@@UEAA@XZ
    ??1?$Object@VEntry@IPMA@ISOBMFF@@@PIMPL@XS@@UEAA@XZ
    ??1?$Object@VExtent@Item@ILOC@ISOBMFF@@@PIMPL@XS@@UEAA@XZ
    ??1?$Object@VFRMA@ISOBMFF@@@PIMPL@XS@@UEAA@XZ
    ??1?$Object@VFTYP@ISOBMFF@@@PIMPL@XS@@UEAA@XZ
    ??1?$Object@VFile@ISOBMFF@@@PIMPL@XS@@UEAA@XZ
    ??1?$Object@VFullBox@ISOBMFF@@@PIMPL@XS@@UEAA@XZ
    ??1?$Object@VHDLR@ISOBMFF@@@PIMPL@XS@@UEAA@XZ
    ??1?$Object@VHVCC@ISOBMFF@@@PIMPL@XS@@UEAA@XZ
    ??1?$Object@VIINF@ISOBMFF@@@PIMPL@XS@@UEAA@XZ
    ??1?$Object@VILOC@ISOBMFF@@@PIMPL@XS@@UEAA@XZ
    ??1?$Object@VINFE@ISOBMFF@@@PIMPL@XS@@UEAA@XZ
    ??1?$Object@VIPMA@ISOBMFF@@@PIMPL@XS@@UEAA@XZ
    ??1?$Object@VIREF@ISOBMFF@@@PIMPL@XS@@UEAA@XZ
    ??1?$Object@VIROT@ISOBMFF@@@PIMPL@XS@@UEAA@XZ
    ??1?$Object@VISPE@ISOBMFF@@@PIMPL@XS@@UEAA@XZ
    ??1?$Object@VImageGrid@ISOBMFF@@@PIMPL@XS@@UEAA@XZ
    ??1?$Object@VItem@ILOC@ISOBMFF@@@PIMPL@XS@@UEAA@XZ
    ??1?$Object@VMETA@ISOBMFF@@@PIMPL@XS@@UEAA@XZ
    ??1?$Object@VMVHD@ISOBMFF@@@PIMPL@XS@@UEAA@XZ
    ??1?$Object@VMatrix@ISOBMFF@@@PIMPL@XS@@UEAA@XZ
    ??1?$Object@VNALUnit@Array@HVCC@ISOBMFF@@@PIMPL@XS@@UEAA@XZ
    ??1?$Object@VPITM@ISOBMFF@@@PIMPL@XS@@UEAA@XZ
    ??1?$Object@VPIXI@ISOBMFF@@@PIMPL@XS@@UEAA@XZ
    ??1?$Object@VParser@ISOBMFF@@@PIMPL@XS@@UEAA@XZ
    ??1?$Object@VSCHM@ISOBMFF@@@PIMPL@XS@@UEAA@XZ
    ??1?$Object@VSTSD@ISOBMFF@@@PIMPL@XS@@UEAA@XZ
    ??1?$Object@VSingleItemTypeReferenceBox@ISOBMFF@@@PIMPL@XS@@UEAA@XZ
    ??1?$Object@VTHMB@ISOBMFF@@@PIMPL@XS@@UEAA@XZ
    ??1?$Object@VTKHD@ISOBMFF@@@PIMPL@XS@@UEAA@XZ
    ??1?$Object@VURL@ISOBMFF@@@PIMPL@XS@@UEAA@XZ
    ??1?$Object@VURN@ISOBMFF@@@PIMPL@XS@@UEAA@XZ
    ??1Array@HVCC@ISOBMFF@@UEAA@XZ
    ??1Association@Entry@IPMA@ISOBMFF@@UEAA@XZ
    ??1BinaryStream@ISOBMFF@@UEAA@XZ
    ??1Box@ISOBMFF@@UEAA@XZ
    ??1CDSC@ISOBMFF@@UEAA@XZ
    ??1COLR@ISOBMFF@@UEAA@XZ
    ??1Channel@PIXI@ISOBMFF@@UEAA@XZ
    ??1Container@ISOBMFF@@UEAA@XZ
    ??1ContainerBox@ISOBMFF@@UEAA@XZ
    ??1DIMG@ISOBMFF@@UEAA@XZ
    ??1DREF@ISOBMFF@@UEAA@XZ
    ??1DisplayableObject@ISOBMFF@@UEAA@XZ
    ??1DisplayableObjectContainer@ISOBMFF@@UEAA@XZ
    ??1Entry@IPMA@ISOBMFF@@UEAA@XZ
    ??1Extent@Item@ILOC@ISOBMFF@@UEAA@XZ
    ??1FRMA@ISOBMFF@@UEAA@XZ
    ??1FTYP@ISOBMFF@@UEAA@XZ
    ??1File@ISOBMFF@@UEAA@XZ
    ??1FullBox@ISOBMFF@@UEAA@XZ
    ??1HDLR@ISOBMFF@@UEAA@XZ
    ??1HVCC@ISOBMFF@@UEAA@XZ
    ??1IINF@ISOBMFF@@UEAA@XZ
    ??1ILOC@ISOBMFF@@UEAA@XZ
    ??1INFE@ISOBMFF@@UEAA@XZ
    ??1IPCO@ISOBMFF@@UEAA@XZ
    ??1IPMA@ISOBMFF@@UEAA@XZ
    ??1IREF@ISOBMFF@@UEAA@XZ
    ??1IROT@ISOBMFF@@UEAA@XZ
    ??1ISPE@ISOBMFF@@UEAA@XZ
    ??1ImageGrid@ISOBMFF@@UEAA@XZ
    ??1Item@ILOC@ISOBMFF@@UEAA@XZ
    ??1META@ISOBMFF@@UEAA@XZ
    ??1MVHD@ISOBMFF@@UEAA@XZ
    ??1Matrix@ISOBMFF@@UEAA@XZ
    ??1NALUnit@Array@HVCC@ISOBMFF@@UEAA@XZ
    ??1PITM@ISOBMFF@@UEAA@XZ
    ??1PIXI@ISOBMFF@@UEAA@XZ
    ??1Parser@ISOBMFF@@UEAA@XZ
    ??1SCHM@ISOBMFF@@UEAA@XZ
    ??1STSD@ISOBMFF@@UEAA@XZ
    ??1SingleItemTypeReferenceBox@ISOBMFF@@UEAA@XZ
    ??1THMB@ISOBMFF@@UEAA@XZ
    ??1TKHD@ISOBMFF@@UEAA@XZ
    ??1URL@ISOBMFF@@UEAA@XZ
    ??1URN@ISOBMFF@@UEAA@XZ
    ??4?$Object@VArray@HVCC@ISOBMFF@@@PIMPL@XS@@QEAAAEAV012@V012@@Z
    ??4?$Object@VAssociation@Entry@IPMA@ISOBMFF@@@PIMPL@XS@@QEAAAEAV012@V012@@Z
    ??4?$Object@VBinaryStream@ISOBMFF@@@PIMPL@XS@@QEAAAEAV012@V012@@Z
    ??4?$Object@VBox@ISOBMFF@@@PIMPL@XS@@QEAAAEAV012@V012@@Z
    ??4?$Object@VCDSC@ISOBMFF@@@PIMPL@XS@@QEAAAEAV012@V012@@Z
    ??4?$Object@VCOLR@ISOBMFF@@@PIMPL@XS@@QEAAAEAV012@V012@@Z
    ??4?$Object@VChannel@PIXI@ISOBMFF@@@PIMPL@XS@@QEAAAEAV012@V012@@Z
    ??4?$Object@VContainerBox@ISOBMFF@@@PIMPL@XS@@QEAAAEAV012@V012@@Z
    ??4?$Object@VDIMG@ISOBMFF@@@PIMPL@XS@@QEAAAEAV012@V012@@Z
    ??4?$Object@VDREF@ISOBMFF@@@PIMPL@XS@@QEAAAEAV012@V012@@Z
    ??4?$Object@VEntry@IPMA@ISOBMFF@@@PIMPL@XS@@QEAAAEAV012@V012@@Z
    ??4?$Object@VExtent@Item@ILOC@ISOBMFF@@@PIMPL@XS@@QEAAAEAV012@V012@@Z
    ??4?$Object@VFRMA@ISOBMFF@@@PIMPL@XS@@QEAAAEAV012@V012@@Z
    ??4?$Object@VFTYP@ISOBMFF@@@PIMPL@XS@@QEAAAEAV012@V012@@Z
    ??4?$Object@VFile@ISOBMFF@@@PIMPL@XS@@QEAAAEAV012@V012@@Z
    ??4?$Object@VFullBox@ISOBMFF@@@PIMPL@XS@@QEAAAEAV012@V012@@Z
    ??4?$Object@VHDLR@ISOBMFF@@@PIMPL@XS@@QEAAAEAV012@V012@@Z
    ??4?$Object@VHVCC@ISOBMFF@@@PIMPL@XS@@QEAAAEAV012@V012@@Z
    ??4?$Object@VIINF@ISOBMFF@@@PIMPL@XS@@QEAAAEAV012@V012@@Z
    ??4?$Object@VILOC@ISOBMFF@@@PIMPL@XS@@QEAAAEAV012@V012@@Z
    ??4?$Object@VINFE@ISOBMFF@@@PIMPL@XS@@QEAAAEAV012@V012@@Z
    ??4?$Object@VIPMA@ISOBMFF@@@PIMPL@XS@@QEAAAEAV012@V012@@Z
    ??4?$Object@VIREF@ISOBMFF@@@PIMPL@XS@@QEAAAEAV012@V012@@Z
    ??4?$Object@VIROT@ISOBMFF@@@PIMPL@XS@@QEAAAEAV012@V012@@Z
    ??4?$Object@VISPE@ISOBMFF@@@PIMPL@XS@@QEAAAEAV012@V012@@Z
    ??4?$Object@VImageGrid@ISOBMFF@@@PIMPL@XS@@QEAAAEAV012@V012@@Z
    ??4?$Object@VItem@ILOC@ISOBMFF@@@PIMPL@XS@@QEAAAEAV012@V012@@Z
    ??4?$Object@VMETA@ISOBMFF@@@PIMPL@XS@@QEAAAEAV012@V012@@Z
    ??4?$Object@VMVHD@ISOBMFF@@@PIMPL@XS@@QEAAAEAV012@V012@@Z
    ??4?$Object@VMatrix@ISOBMFF@@@PIMPL@XS@@QEAAAEAV012@V012@@Z
    ??4?$Object@VNALUnit@Array@HVCC@ISOBMFF@@@PIMPL@XS@@QEAAAEAV012@V012@@Z
    ??4?$Object@VPITM@ISOBMFF@@@PIMPL@XS@@QEAAAEAV012@V012@@Z
    ??4?$Object@VPIXI@ISOBMFF@@@PIMPL@XS@@QEAAAEAV012@V012@@Z
    ??4?$Object@VParser@ISOBMFF@@@PIMPL@XS@@QEAAAEAV012@V012@@Z
    ??4?$Object@VSCHM@ISOBMFF@@@PIMPL@XS@@QEAAAEAV012@V012@@Z
    ??4?$Object@VSTSD@ISOBMFF@@@PIMPL@XS@@QEAAAEAV012@V012@@Z
    ??4?$Object@VSingleItemTypeReferenceBox@ISOBMFF@@@PIMPL@XS@@QEAAAEAV012@V012@@Z
    ??4?$Object@VTHMB@ISOBMFF@@@PIMPL@XS@@QEAAAEAV012@V012@@Z
    ??4?$Object@VTKHD@ISOBMFF@@@PIMPL@XS@@QEAAAEAV012@V012@@Z
    ??4?$Object@VURL@ISOBMFF@@@PIMPL@XS@@QEAAAEAV012@V012@@Z
    ??4?$Object@VURN@ISOBMFF@@@PIMPL@XS@@QEAAAEAV012@V012@@Z
    ??4Array@HVCC@ISOBMFF@@QEAAAEAV012@$$QEAV012@@Z
    ??4Array@HVCC@ISOBMFF@@QEAAAEAV012@AEBV012@@Z
    ??4Association@Entry@IPMA@ISOBMFF@@QEAAAEAV0123@$$QEAV0123@@Z
    ??4Association@Entry@IPMA@ISOBMFF@@QEAAAEAV0123@AEBV0123@@Z
    ??4BinaryStream@ISOBMFF@@QEAAAEAV01@$$QEAV01@@Z
    ??4BinaryStream@ISOBMFF@@QEAAAEAV01@AEBV01@@Z
    ??4Box@ISOBMFF@@QEAAAEAV01@$$QEAV01@@Z
    ??4Box@ISOBMFF@@QEAAAEAV01@AEBV01@@Z
    ??4CDSC@ISOBMFF@@QEAAAEAV01@$$QEAV01@@Z
    ??4CDSC@ISOBMFF@@QEAAAEAV01@AEBV01@@Z
    ??4COLR@ISOBMFF@@QEAAAEAV01@$$QEAV01@@Z
    ??4COLR@ISOBMFF@@QEAAAEAV01@AEBV01@@Z
    ??4Channel@PIXI@ISOBMFF@@QEAAAEAV012@$$QEAV012@@Z
    ??4Channel@PIXI@ISOBMFF@@QEAAAEAV012@AEBV012@@Z
    ??4Container@ISOBMFF@@QEAAAEAV01@AEBV01@@Z
    ??4ContainerBox@ISOBMFF@@QEAAAEAV01@$$QEAV01@@Z
    ??4ContainerBox@ISOBMFF@@QEAAAEAV01@AEBV01@@Z
    ??4DIMG@ISOBMFF@@QEAAAEAV01@$$QEAV01@@Z
    ??4DIMG@ISOBMFF@@QEAAAEAV01@AEBV01@@Z
    ??4DREF@ISOBMFF@@QEAAAEAV01@$$QEAV01@@Z
    ??4DREF@ISOBMFF@@QEAAAEAV01@AEBV01@@Z
    ??4DisplayableObject@ISOBMFF@@QEAAAEAV01@AEBV01@@Z
    ??4DisplayableObjectContainer@ISOBMFF@@QEAAAEAV01@AEBV01@@Z
    ??4Entry@IPMA@ISOBMFF@@QEAAAEAV012@$$QEAV012@@Z
    ??4Entry@IPMA@ISOBMFF@@QEAAAEAV012@AEBV012@@Z
    ??4Extent@Item@ILOC@ISOBMFF@@QEAAAEAV0123@$$QEAV0123@@Z
    ??4Extent@Item@ILOC@ISOBMFF@@QEAAAEAV0123@AEBV0123@@Z
    ??4FRMA@ISOBMFF@@QEAAAEAV01@$$QEAV01@@Z
    ??4FRMA@ISOBMFF@@QEAAAEAV01@AEBV01@@Z
    ??4FTYP@ISOBMFF@@QEAAAEAV01@$$QEAV01@@Z
    ??4FTYP@ISOBMFF@@QEAAAEAV01@AEBV01@@Z
    ??4File@ISOBMFF@@QEAAAEAV01@$$QEAV01@@Z
    ??4File@ISOBMFF@@QEAAAEAV01@AEBV01@@Z
    ??4FullBox@ISOBMFF@@QEAAAEAV01@$$QEAV01@@Z
    ??4FullBox@ISOBMFF@@QEAAAEAV01@AEBV01@@Z
    ??4HDLR@ISOBMFF@@QEAAAEAV01@$$QEAV01@@Z
    ??4HDLR@ISOBMFF@@QEAAAEAV01@AEBV01@@Z
    ??4HVCC@ISOBMFF@@QEAAAEAV01@$$QEAV01@@Z
    ??4HVCC@ISOBMFF@@QEAAAEAV01@AEBV01@@Z
    ??4IINF@ISOBMFF@@QEAAAEAV01@$$QEAV01@@Z
    ??4IINF@ISOBMFF@@QEAAAEAV01@AEBV01@@Z
    ??4ILOC@ISOBMFF@@QEAAAEAV01@$$QEAV01@@Z
    ??4ILOC@ISOBMFF@@QEAAAEAV01@AEBV01@@Z
    ??4INFE@ISOBMFF@@QEAAAEAV01@$$QEAV01@@Z
    ??4INFE@ISOBMFF@@QEAAAEAV01@AEBV01@@Z
    ??4IPCO@ISOBMFF@@QEAAAEAV01@$$QEAV01@@Z
    ??4IPCO@ISOBMFF@@QEAAAEAV01@AEBV01@@Z
    ??4IPMA@ISOBMFF@@QEAAAEAV01@$$QEAV01@@Z
    ??4IPMA@ISOBMFF@@QEAAAEAV01@AEBV01@@Z
    ??4IREF@ISOBMFF@@QEAAAEAV01@$$QEAV01@@Z
    ??4IREF@ISOBMFF@@QEAAAEAV01@AEBV01@@Z
    ??4IROT@ISOBMFF@@QEAAAEAV01@$$QEAV01@@Z
    ??4IROT@ISOBMFF@@QEAAAEAV01@AEBV01@@Z
    ??4ISPE@ISOBMFF@@QEAAAEAV01@$$QEAV01@@Z
    ??4ISPE@ISOBMFF@@QEAAAEAV01@AEBV01@@Z
    ??4ImageGrid@ISOBMFF@@QEAAAEAV01@$$QEAV01@@Z
    ??4ImageGrid@ISOBMFF@@QEAAAEAV01@AEBV01@@Z
    ??4Item@ILOC@ISOBMFF@@QEAAAEAV012@$$QEAV012@@Z
    ??4Item@ILOC@ISOBMFF@@QEAAAEAV012@AEBV012@@Z
    ??4META@ISOBMFF@@QEAAAEAV01@$$QEAV01@@Z
    ??4META@ISOBMFF@@QEAAAEAV01@AEBV01@@Z
    ??4MVHD@ISOBMFF@@QEAAAEAV01@$$QEAV01@@Z
    ??4MVHD@ISOBMFF@@QEAAAEAV01@AEBV01@@Z
    ??4Matrix@ISOBMFF@@QEAAAEAV01@$$QEAV01@@Z
    ??4Matrix@ISOBMFF@@QEAAAEAV01@AEBV01@@Z
    ??4NALUnit@Array@HVCC@ISOBMFF@@QEAAAEAV0123@$$QEAV0123@@Z
    ??4NALUnit@Array@HVCC@ISOBMFF@@QEAAAEAV0123@AEBV0123@@Z
    ??4PITM@ISOBMFF@@QEAAAEAV01@$$QEAV01@@Z
    ??4PITM@ISOBMFF@@QEAAAEAV01@AEBV01@@Z
    ??4PIXI@ISOBMFF@@QEAAAEAV01@$$QEAV01@@Z
    ??4PIXI@ISOBMFF@@QEAAAEAV01@AEBV01@@Z
    ??4Parser@ISOBMFF@@QEAAAEAV01@$$QEAV01@@Z
    ??4Parser@ISOBMFF@@QEAAAEAV01@AEBV01@@Z
    ??4SCHM@ISOBMFF@@QEAAAEAV01@$$QEAV01@@Z
    ??4SCHM@ISOBMFF@@QEAAAEAV01@AEBV01@@Z
    ??4STSD@ISOBMFF@@QEAAAEAV01@$$QEAV01@@Z
    ??4STSD@ISOBMFF@@QEAAAEAV01@AEBV01@@Z
    ??4SingleItemTypeReferenceBox@ISOBMFF@@QEAAAEAV01@$$QEAV01@@Z
    ??4SingleItemTypeReferenceBox@ISOBMFF@@QEAAAEAV01@AEBV01@@Z
    ??4THMB@ISOBMFF@@QEAAAEAV01@$$QEAV01@@Z
    ??4THMB@ISOBMFF@@QEAAAEAV01@AEBV01@@Z
    ??4TKHD@ISOBMFF@@QEAAAEAV01@$$QEAV01@@Z
    ??4TKHD@ISOBMFF@@QEAAAEAV01@AEBV01@@Z
    ??4URL@ISOBMFF@@QEAAAEAV01@$$QEAV01@@Z
    ??4URL@ISOBMFF@@QEAAAEAV01@AEBV01@@Z
    ??4URN@ISOBMFF@@QEAAAEAV01@$$QEAV01@@Z
    ??4URN@ISOBMFF@@QEAAAEAV01@AEBV01@@Z
    ??6ISOBMFF@@YAAEAV?$basic_ostream@DU?$char_traits@D@std@@@std@@AEAV12@AEBVDisplayableObject@0@@Z
    ??_7?$Object@VArray@HVCC@ISOBMFF@@@PIMPL@XS@@6B@
    ??_7?$Object@VAssociation@Entry@IPMA@ISOBMFF@@@PIMPL@XS@@6B@
    ??_7?$Object@VBinaryStream@ISOBMFF@@@PIMPL@XS@@6B@
    ??_7?$Object@VBox@ISOBMFF@@@PIMPL@XS@@6B@
    ??_7?$Object@VCDSC@ISOBMFF@@@PIMPL@XS@@6B@
    ??_7?$Object@VCOLR@ISOBMFF@@@PIMPL@XS@@6B@
    ??_7?$Object@VChannel@PIXI@ISOBMFF@@@PIMPL@XS@@6B@
    ??_7?$Object@VContainerBox@ISOBMFF@@@PIMPL@XS@@6B@
    ??_7?$Object@VDIMG@ISOBMFF@@@PIMPL@XS@@6B@
    ??_7?$Object@VDREF@ISOBMFF@@@PIMPL@XS@@6B@
    ??_7?$Object@VEntry@IPMA@ISOBMFF@@@PIMPL@XS@@6B@
    ??_7?$Object@VExtent@Item@ILOC@ISOBMFF@@@PIMPL@XS@@6B@
    ??_7?$Object@VFRMA@ISOBMFF@@@PIMPL@XS@@6B@
    ??_7?$Object@VFTYP@ISOBMFF@@@PIMPL@XS@@6B@
    ??_7?$Object@VFile@ISOBMFF@@@PIMPL@XS@@6B@
    ??_7?$Object@VFullBox@ISOBMFF@@@PIMPL@XS@@6B@
    ??_7?$Object@VHDLR@ISOBMFF@@@PIMPL@XS@@6B@
    ??_7?$Object@VHVCC@ISOBMFF@@@PIMPL@XS@@6B@
    ??_7?$Object@VIINF@ISOBMFF@@@PIMPL@XS@@6B@
    ??_7?$Object@VILOC@ISOBMFF@@@PIMPL@XS@@6B@
    ??_7?$Object@VINFE@ISOBMFF@@@PIMPL@XS@@6B@
    ??_7?$Object@VIPMA@ISOBMFF@@@PIMPL@XS@@6B@
    ??_7?$Object@VIREF@ISOBMFF@@@PIMPL@XS@@6B@
    ??_7?$Object@VIROT@ISOBMFF@@@PIMPL@XS@@6B@
    ??_7?$Object@VISPE@ISOBMFF@@@PIMPL@XS@@6B@
    ??_7?$Object@VImageGrid@ISOBMFF@@@PIMPL@XS@@6B@
    ??_7?$Object@VItem@ILOC@ISOBMFF@@@PIMPL@XS@@6B@
    ??_7?$Object@VMETA@ISOBMFF@@@PIMPL@XS@@6B@
    ??_7?$Object@VMVHD@ISOBMFF@@@PIMPL@XS@@6B@
    ??_7?$Object@VMatrix@ISOBMFF@@@PIMPL@XS@@6B@
    ??_7?$Object@VNALUnit@Array@HVCC@ISOBMFF@@@PIMPL@XS@@6B@
    ??_7?$Object@VPITM@ISOBMFF@@@PIMPL@XS@@6B@
    ??_7?$Object@VPIXI@ISOBMFF@@@PIMPL@XS@@6B@
    ??_7?$Object@VParser@ISOBMFF@@@PIMPL@XS@@6B@
    ??_7?$Object@VSCHM@ISOBMFF@@@PIMPL@XS@@6B@
    ??_7?$Object@VSTSD@ISOBMFF@@@PIMPL@XS@@6B@
    ??_7?$Object@VSingleItemTypeReferenceBox@ISOBMFF@@@PIMPL@XS@@6B@
    ??_7?$Object@VTHMB@ISOBMFF@@@PIMPL@XS@@6B@
    ??_7?$Object@VTKHD@ISOBMFF@@@PIMPL@XS@@6B@
    ??_7?$Object@VURL@ISOBMFF@@@PIMPL@XS@@6B@
    ??_7?$Object@VURN@ISOBMFF@@@PIMPL@XS@@6B@
    ??_7Array@HVCC@ISOBMFF@@6B?$Object@VArray@HVCC@ISOBMFF@@@PIMPL@XS@@@
    ??_7Array@HVCC@ISOBMFF@@6BDisplayableObject@2@@
    ??_7Array@HVCC@ISOBMFF@@6BDisplayableObjectContainer@2@@
    ??_7Association@Entry@IPMA@ISOBMFF@@6B?$Object@VAssociation@Entry@IPMA@ISOBMFF@@@PIMPL@XS@@@
    ??_7Association@Entry@IPMA@ISOBMFF@@6BDisplayableObject@3@@
    ??_7BinaryStream@ISOBMFF@@6B@
    ??_7Box@ISOBMFF@@6B?$Object@VBox@ISOBMFF@@@PIMPL@XS@@@
    ??_7Box@ISOBMFF@@6BDisplayableObject@1@@
    ??_7CDSC@ISOBMFF@@6B?$Object@VBox@ISOBMFF@@@PIMPL@XS@@@
    ??_7CDSC@ISOBMFF@@6B?$Object@VCDSC@ISOBMFF@@@PIMPL@XS@@@
    ??_7CDSC@ISOBMFF@@6BDisplayableObject@1@@
    ??_7CDSC@ISOBMFF@@6BSingleItemTypeReferenceBox@1@@
    ??_7COLR@ISOBMFF@@6B?$Object@VBox@ISOBMFF@@@PIMPL@XS@@@
    ??_7COLR@ISOBMFF@@6B@
    ??_7COLR@ISOBMFF@@6BDisplayableObject@1@@
    ??_7Channel@PIXI@ISOBMFF@@6B?$Object@VChannel@PIXI@ISOBMFF@@@PIMPL@XS@@@
    ??_7Channel@PIXI@ISOBMFF@@6BDisplayableObject@2@@
    ??_7Container@ISOBMFF@@6B@
    ??_7ContainerBox@ISOBMFF@@6B?$Object@VBox@ISOBMFF@@@PIMPL@XS@@@
    ??_7ContainerBox@ISOBMFF@@6B?$Object@VContainerBox@ISOBMFF@@@PIMPL@XS@@@
    ??_7ContainerBox@ISOBMFF@@6BContainer@1@@
    ??_7ContainerBox@ISOBMFF@@6BDisplayableObject@1@@
    ??_7DIMG@ISOBMFF@@6B?$Object@VBox@ISOBMFF@@@PIMPL@XS@@@
    ??_7DIMG@ISOBMFF@@6B?$Object@VDIMG@ISOBMFF@@@PIMPL@XS@@@
    ??_7DIMG@ISOBMFF@@6BDisplayableObject@1@@
    ??_7DIMG@ISOBMFF@@6BSingleItemTypeReferenceBox@1@@
    ??_7DREF@ISOBMFF@@6B?$Object@VBox@ISOBMFF@@@PIMPL@XS@@@
    ??_7DREF@ISOBMFF@@6B?$Object@VDREF@ISOBMFF@@@PIMPL@XS@@@
    ??_7DREF@ISOBMFF@@6BContainer@1@@
    ??_7DREF@ISOBMFF@@6BDisplayableObject@1@@
    ??_7DREF@ISOBMFF@@6BFullBox@1@@
    ??_7DisplayableObject@ISOBMFF@@6B@
    ??_7DisplayableObjectContainer@ISOBMFF@@6B@
    ??_7Entry@IPMA@ISOBMFF@@6B?$Object@VEntry@IPMA@ISOBMFF@@@PIMPL@XS@@@
    ??_7Entry@IPMA@ISOBMFF@@6BDisplayableObject@2@@
    ??_7Entry@IPMA@ISOBMFF@@6BDisplayableObjectContainer@2@@
    ??_7Extent@Item@ILOC@ISOBMFF@@6B?$Object@VExtent@Item@ILOC@ISOBMFF@@@PIMPL@XS@@@
    ??_7Extent@Item@ILOC@ISOBMFF@@6BDisplayableObject@3@@
    ??_7FRMA@ISOBMFF@@6B?$Object@VBox@ISOBMFF@@@PIMPL@XS@@@
    ??_7FRMA@ISOBMFF@@6B@
    ??_7FRMA@ISOBMFF@@6BDisplayableObject@1@@
    ??_7FTYP@ISOBMFF@@6B?$Object@VBox@ISOBMFF@@@PIMPL@XS@@@
    ??_7FTYP@ISOBMFF@@6B@
    ??_7FTYP@ISOBMFF@@6BDisplayableObject@1@@
    ??_7File@ISOBMFF@@6B?$Object@VBox@ISOBMFF@@@PIMPL@XS@@@
    ??_7File@ISOBMFF@@6B?$Object@VContainerBox@ISOBMFF@@@PIMPL@XS@@@
    ??_7File@ISOBMFF@@6B@
    ??_7File@ISOBMFF@@6BContainer@1@@
    ??_7File@ISOBMFF@@6BDisplayableObject@1@@
    ??_7FullBox@ISOBMFF@@6B?$Object@VBox@ISOBMFF@@@PIMPL@XS@@@
    ??_7FullBox@ISOBMFF@@6B@
    ??_7FullBox@ISOBMFF@@6BDisplayableObject@1@@
    ??_7HDLR@ISOBMFF@@6B?$Object@VBox@ISOBMFF@@@PIMPL@XS@@@
    ??_7HDLR@ISOBMFF@@6B?$Object@VHDLR@ISOBMFF@@@PIMPL@XS@@@
    ??_7HDLR@ISOBMFF@@6BDisplayableObject@1@@
    ??_7HDLR@ISOBMFF@@6BFullBox@1@@
    ??_7HVCC@ISOBMFF@@6B?$Object@VBox@ISOBMFF@@@PIMPL@XS@@@
    ??_7HVCC@ISOBMFF@@6B?$Object@VHVCC@ISOBMFF@@@PIMPL@XS@@@
    ??_7HVCC@ISOBMFF@@6BDisplayableObject@1@@
    ??_7HVCC@ISOBMFF@@6BDisplayableObjectContainer@1@@
    ??_7IINF@ISOBMFF@@6B?$Object@VBox@ISOBMFF@@@PIMPL@XS@@@
    ??_7IINF@ISOBMFF@@6B?$Object@VIINF@ISOBMFF@@@PIMPL@XS@@@
    ??_7IINF@ISOBMFF@@6BContainer@1@@
    ??_7IINF@ISOBMFF@@6BDisplayableObject@1@@
    ??_7IINF@ISOBMFF@@6BFullBox@1@@
    ??_7ILOC@ISOBMFF@@6B?$Object@VBox@ISOBMFF@@@PIMPL@XS@@@
    ??_7ILOC@ISOBMFF@@6B?$Object@VILOC@ISOBMFF@@@PIMPL@XS@@@
    ??_7ILOC@ISOBMFF@@6BDisplayableObject@1@@
    ??_7ILOC@ISOBMFF@@6BDisplayableObjectContainer@1@@
    ??_7ILOC@ISOBMFF@@6BFullBox@1@@
    ??_7INFE@ISOBMFF@@6B?$Object@VBox@ISOBMFF@@@PIMPL@XS@@@
    ??_7INFE@ISOBMFF@@6B?$Object@VINFE@ISOBMFF@@@PIMPL@XS@@@
    ??_7INFE@ISOBMFF@@6BDisplayableObject@1@@
    ??_7INFE@ISOBMFF@@6BFullBox@1@@
    ??_7IPCO@ISOBMFF@@6B?$Object@VBox@ISOBMFF@@@PIMPL@XS@@@
    ??_7IPCO@ISOBMFF@@6B?$Object@VContainerBox@ISOBMFF@@@PIMPL@XS@@@
    ??_7IPCO@ISOBMFF@@6BContainer@1@@
    ??_7IPCO@ISOBMFF@@6BDisplayableObject@1@@
    ??_7IPMA@ISOBMFF@@6B?$Object@VBox@ISOBMFF@@@PIMPL@XS@@@
    ??_7IPMA@ISOBMFF@@6B?$Object@VIPMA@ISOBMFF@@@PIMPL@XS@@@
    ??_7IPMA@ISOBMFF@@6BDisplayableObject@1@@
    ??_7IPMA@ISOBMFF@@6BDisplayableObjectContainer@1@@
    ??_7IPMA@ISOBMFF@@6BFullBox@1@@
    ??_7IREF@ISOBMFF@@6B?$Object@VBox@ISOBMFF@@@PIMPL@XS@@@
    ??_7IREF@ISOBMFF@@6B?$Object@VIREF@ISOBMFF@@@PIMPL@XS@@@
    ??_7IREF@ISOBMFF@@6BContainer@1@@
    ??_7IREF@ISOBMFF@@6BDisplayableObject@1@@
    ??_7IREF@ISOBMFF@@6BFullBox@1@@
    ??_7IROT@ISOBMFF@@6B?$Object@VBox@ISOBMFF@@@PIMPL@XS@@@
    ??_7IROT@ISOBMFF@@6B@
    ??_7IROT@ISOBMFF@@6BDisplayableObject@1@@
    ??_7ISPE@ISOBMFF@@6B?$Object@VBox@ISOBMFF@@@PIMPL@XS@@@
    ??_7ISPE@ISOBMFF@@6B?$Object@VISPE@ISOBMFF@@@PIMPL@XS@@@
    ??_7ISPE@ISOBMFF@@6BDisplayableObject@1@@
    ??_7ISPE@ISOBMFF@@6BFullBox@1@@
    ??_7ImageGrid@ISOBMFF@@6B?$Object@VImageGrid@ISOBMFF@@@PIMPL@XS@@@
    ??_7ImageGrid@ISOBMFF@@6BDisplayableObject@1@@
    ??_7Item@ILOC@ISOBMFF@@6B?$Object@VItem@ILOC@ISOBMFF@@@PIMPL@XS@@@
    ??_7Item@ILOC@ISOBMFF@@6BDisplayableObject@2@@
    ??_7Item@ILOC@ISOBMFF@@6BDisplayableObjectContainer@2@@
    ??_7META@ISOBMFF@@6B?$Object@VBox@ISOBMFF@@@PIMPL@XS@@@
    ??_7META@ISOBMFF@@6B?$Object@VMETA@ISOBMFF@@@PIMPL@XS@@@
    ??_7META@ISOBMFF@@6BContainer@1@@
    ??_7META@ISOBMFF@@6BDisplayableObject@1@@
    ??_7META@ISOBMFF@@6BFullBox@1@@
    ??_7MVHD@ISOBMFF@@6B?$Object@VBox@ISOBMFF@@@PIMPL@XS@@@
    ??_7MVHD@ISOBMFF@@6B?$Object@VMVHD@ISOBMFF@@@PIMPL@XS@@@
    ??_7MVHD@ISOBMFF@@6BDisplayableObject@1@@
    ??_7MVHD@ISOBMFF@@6BFullBox@1@@
    ??_7Matrix@ISOBMFF@@6B?$Object@VMatrix@ISOBMFF@@@PIMPL@XS@@@
    ??_7Matrix@ISOBMFF@@6BDisplayableObject@1@@
    ??_7NALUnit@Array@HVCC@ISOBMFF@@6B?$Object@VNALUnit@Array@HVCC@ISOBMFF@@@PIMPL@XS@@@
    ??_7NALUnit@Array@HVCC@ISOBMFF@@6BDisplayableObject@3@@
    ??_7PITM@ISOBMFF@@6B?$Object@VBox@ISOBMFF@@@PIMPL@XS@@@
    ??_7PITM@ISOBMFF@@6B?$Object@VPITM@ISOBMFF@@@PIMPL@XS@@@
    ??_7PITM@ISOBMFF@@6BDisplayableObject@1@@
    ??_7PITM@ISOBMFF@@6BFullBox@1@@
    ??_7PIXI@ISOBMFF@@6B?$Object@VBox@ISOBMFF@@@PIMPL@XS@@@
    ??_7PIXI@ISOBMFF@@6B?$Object@VPIXI@ISOBMFF@@@PIMPL@XS@@@
    ??_7PIXI@ISOBMFF@@6BDisplayableObject@1@@
    ??_7PIXI@ISOBMFF@@6BDisplayableObjectContainer@1@@
    ??_7PIXI@ISOBMFF@@6BFullBox@1@@
    ??_7Parser@ISOBMFF@@6B@
    ??_7SCHM@ISOBMFF@@6B?$Object@VBox@ISOBMFF@@@PIMPL@XS@@@
    ??_7SCHM@ISOBMFF@@6B?$Object@VSCHM@ISOBMFF@@@PIMPL@XS@@@
    ??_7SCHM@ISOBMFF@@6BDisplayableObject@1@@
    ??_7SCHM@ISOBMFF@@6BFullBox@1@@
    ??_7STSD@ISOBMFF@@6B?$Object@VBox@ISOBMFF@@@PIMPL@XS@@@
    ??_7STSD@ISOBMFF@@6B?$Object@VSTSD@ISOBMFF@@@PIMPL@XS@@@
    ??_7STSD@ISOBMFF@@6BContainer@1@@
    ??_7STSD@ISOBMFF@@6BDisplayableObject@1@@
    ??_7STSD@ISOBMFF@@6BFullBox@1@@
    ??_7SingleItemTypeReferenceBox@ISOBMFF@@6B?$Object@VBox@ISOBMFF@@@PIMPL@XS@@@
    ??_7SingleItemTypeReferenceBox@ISOBMFF@@6B@
    ??_7SingleItemTypeReferenceBox@ISOBMFF@@6BDisplayableObject@1@@
    ??_7THMB@ISOBMFF@@6B?$Object@VBox@ISOBMFF@@@PIMPL@XS@@@
    ??_7THMB@ISOBMFF@@6B?$Object@VTHMB@ISOBMFF@@@PIMPL@XS@@@
    ??_7THMB@ISOBMFF@@6BDisplayableObject@1@@
    ??_7THMB@ISOBMFF@@6BSingleItemTypeReferenceBox@1@@
    ??_7TKHD@ISOBMFF@@6B?$Object@VBox@ISOBMFF@@@PIMPL@XS@@@
    ??_7TKHD@ISOBMFF@@6B?$Object@VTKHD@ISOBMFF@@@PIMPL@XS@@@
    ??_7TKHD@ISOBMFF@@6BDisplayableObject@1@@
    ??_7TKHD@ISOBMFF@@6BFullBox@1@@
    ??_7URL@ISOBMFF@@6B?$Object@VBox@ISOBMFF@@@PIMPL@XS@@@
    ??_7URL@ISOBMFF@@6B?$Object@VURL@ISOBMFF@@@PIMPL@XS@@@
    ??_7URL@ISOBMFF@@6BDisplayableObject@1@@
    ??_7URL@ISOBMFF@@6BFullBox@1@@
    ??_7URN@ISOBMFF@@6B?$Object@VBox@ISOBMFF@@@PIMPL@XS@@@
    ??_7URN@ISOBMFF@@6B?$Object@VURN@ISOBMFF@@@PIMPL@XS@@@
    ??_7URN@ISOBMFF@@6BDisplayableObject@1@@
    ??_7URN@ISOBMFF@@6BFullBox@1@@
    ?AddArray@HVCC@ISOBMFF@@QEAAXV?$shared_ptr@VArray@HVCC@ISOBMFF@@@std@@@Z
    ?AddAssociation@Entry@IPMA@ISOBMFF@@QEAAXV?$shared_ptr@VAssociation@Entry@IPMA@ISOBMFF@@@std@@@Z
    ?AddBox@ContainerBox@ISOBMFF@@UEAAXV?$shared_ptr@VBox@ISOBMFF@@@std@@@Z
    ?AddBox@DREF@ISOBMFF@@UEAAXV?$shared_ptr@VBox@ISOBMFF@@@std@@@Z
    ?AddBox@IINF@ISOBMFF@@UEAAXV?$shared_ptr@VBox@ISOBMFF@@@std@@@Z
    ?AddBox@IREF@ISOBMFF@@UEAAXV?$shared_ptr@VBox@ISOBMFF@@@std@@@Z
    ?AddBox@META@ISOBMFF@@UEAAXV?$shared_ptr@VBox@ISOBMFF@@@std@@@Z
    ?AddBox@STSD@ISOBMFF@@UEAAXV?$shared_ptr@VBox@ISOBMFF@@@std@@@Z
    ?AddChannel@PIXI@ISOBMFF@@QEAAXV?$shared_ptr@VChannel@PIXI@ISOBMFF@@@std@@@Z
    ?AddCompatibleBrand@FTYP@ISOBMFF@@QEAAXAEBV?$basic_string@DU?$char_traits@D@std@@V?$allocator@D@2@@std@@@Z
    ?AddEntry@IINF@ISOBMFF@@QEAAXV?$shared_ptr@VINFE@ISOBMFF@@@std@@@Z
    ?AddEntry@IPMA@ISOBMFF@@QEAAXV?$shared_ptr@VEntry@IPMA@ISOBMFF@@@std@@@Z
    ?AddExtent@Item@ILOC@ISOBMFF@@QEAAXV?$shared_ptr@VExtent@Item@ILOC@ISOBMFF@@@std@@@Z
    ?AddItem@ILOC@ISOBMFF@@QEAAXV?$shared_ptr@VItem@ILOC@ISOBMFF@@@std@@@Z
    ?AddNALUnit@Array@HVCC@ISOBMFF@@QEAAXV?$shared_ptr@VNALUnit@Array@HVCC@ISOBMFF@@@std@@@Z
    ?AddOption@Parser@ISOBMFF@@QEAAXW4Options@12@@Z
    ?AddToItemID@SingleItemTypeReferenceBox@ISOBMFF@@QEAAXI@Z
    ?CreateBox@Parser@ISOBMFF@@QEBA?AV?$shared_ptr@VBox@ISOBMFF@@@std@@AEBV?$basic_string@DU?$char_traits@D@std@@V?$allocator@D@2@@4@@Z
    ?DeleteBytes@BinaryStream@ISOBMFF@@QEAAX_K@Z
    ?Get@BinaryStream@ISOBMFF@@QEAAXPEAE_K1@Z
    ?GetA@Matrix@ISOBMFF@@QEBAIXZ
    ?GetAlternateGroup@TKHD@ISOBMFF@@QEBAGXZ
    ?GetAngle@IROT@ISOBMFF@@QEBAEXZ
    ?GetArrayCompleteness@Array@HVCC@ISOBMFF@@QEBA_NXZ
    ?GetArrays@HVCC@ISOBMFF@@QEBA?AV?$vector@V?$shared_ptr@VArray@HVCC@ISOBMFF@@@std@@V?$allocator@V?$shared_ptr@VArray@HVCC@ISOBMFF@@@std@@@2@@std@@XZ
    ?GetAssociations@Entry@IPMA@ISOBMFF@@QEBA?AV?$vector@V?$shared_ptr@VAssociation@Entry@IPMA@ISOBMFF@@@std@@V?$allocator@V?$shared_ptr@VAssociation@Entry@IPMA@ISOBMFF@@@std@@@2@@std@@XZ
    ?GetAvgFrameRate@HVCC@ISOBMFF@@QEBAGXZ
    ?GetB@Matrix@ISOBMFF@@QEBAIXZ
    ?GetBaseOffset@Item@ILOC@ISOBMFF@@QEBA_KXZ
    ?GetBaseOffsetSize@ILOC@ISOBMFF@@QEBAEXZ
    ?GetBitDepthChromaMinus8@HVCC@ISOBMFF@@QEBAEXZ
    ?GetBitDepthLumaMinus8@HVCC@ISOBMFF@@QEBAEXZ
    ?GetBitsPerChannel@Channel@PIXI@ISOBMFF@@QEBAEXZ
    ?GetBox@Container@ISOBMFF@@QEBA?AV?$shared_ptr@VBox@ISOBMFF@@@std@@AEBV?$basic_string@DU?$char_traits@D@std@@V?$allocator@D@2@@4@@Z
    ?GetBoxes@Container@ISOBMFF@@QEBA?AV?$vector@V?$shared_ptr@VBox@ISOBMFF@@@std@@V?$allocator@V?$shared_ptr@VBox@ISOBMFF@@@std@@@2@@std@@AEBV?$basic_string@DU?$char_traits@D@std@@V?$allocator@D@2@@4@@Z
    ?GetBoxes@ContainerBox@ISOBMFF@@UEBA?AV?$vector@V?$shared_ptr@VBox@ISOBMFF@@@std@@V?$allocator@V?$shared_ptr@VBox@ISOBMFF@@@std@@@2@@std@@XZ
    ?GetBoxes@DREF@ISOBMFF@@UEBA?AV?$vector@V?$shared_ptr@VBox@ISOBMFF@@@std@@V?$allocator@V?$shared_ptr@VBox@ISOBMFF@@@std@@@2@@std@@XZ
    ?GetBoxes@IINF@ISOBMFF@@UEBA?AV?$vector@V?$shared_ptr@VBox@ISOBMFF@@@std@@V?$allocator@V?$shared_ptr@VBox@ISOBMFF@@@std@@@2@@std@@XZ
    ?GetBoxes@IREF@ISOBMFF@@UEBA?AV?$vector@V?$shared_ptr@VBox@ISOBMFF@@@std@@V?$allocator@V?$shared_ptr@VBox@ISOBMFF@@@std@@@2@@std@@XZ
    ?GetBoxes@META@ISOBMFF@@UEBA?AV?$vector@V?$shared_ptr@VBox@ISOBMFF@@@std@@V?$allocator@V?$shared_ptr@VBox@ISOBMFF@@@std@@@2@@std@@XZ
    ?GetBoxes@STSD@ISOBMFF@@UEBA?AV?$vector@V?$shared_ptr@VBox@ISOBMFF@@@std@@V?$allocator@V?$shared_ptr@VBox@ISOBMFF@@@std@@@2@@std@@XZ
    ?GetC@Matrix@ISOBMFF@@QEBAIXZ
    ?GetChannels@PIXI@ISOBMFF@@QEBA?AV?$vector@V?$shared_ptr@VChannel@PIXI@ISOBMFF@@@std@@V?$allocator@V?$shared_ptr@VChannel@PIXI@ISOBMFF@@@std@@@2@@std@@XZ
    ?GetChromaFormat@HVCC@ISOBMFF@@QEBAEXZ
    ?GetColourPrimaries@COLR@ISOBMFF@@QEBAGXZ
    ?GetColourType@COLR@ISOBMFF@@QEBA?AV?$basic_string@DU?$char_traits@D@std@@V?$allocator@D@2@@std@@XZ
    ?GetColumns@ImageGrid@ISOBMFF@@QEBAEXZ
    ?GetCompatibleBrands@FTYP@ISOBMFF@@QEBA?AV?$vector@V?$basic_string@DU?$char_traits@D@std@@V?$allocator@D@2@@std@@V?$allocator@V?$basic_string@DU?$char_traits@D@std@@V?$allocator@D@2@@std@@@2@@std@@XZ
    ?GetConfigurationVersion@HVCC@ISOBMFF@@QEBAEXZ
    ?GetConstantFrameRate@HVCC@ISOBMFF@@QEBAEXZ
    ?GetConstructionMethod@Item@ILOC@ISOBMFF@@QEBAEXZ
    ?GetContentEncoding@INFE@ISOBMFF@@QEBA?AV?$basic_string@DU?$char_traits@D@std@@V?$allocator@D@2@@std@@XZ
    ?GetContentType@INFE@ISOBMFF@@QEBA?AV?$basic_string@DU?$char_traits@D@std@@V?$allocator@D@2@@std@@XZ
    ?GetCreationTime@MVHD@ISOBMFF@@QEBA_KXZ
    ?GetCreationTime@TKHD@ISOBMFF@@QEBA_KXZ
    ?GetD@Matrix@ISOBMFF@@QEBAIXZ
    ?GetData@Box@ISOBMFF@@UEBA?AV?$vector@EV?$allocator@E@std@@@std@@XZ
    ?GetData@NALUnit@Array@HVCC@ISOBMFF@@QEBA?AV?$vector@EV?$allocator@E@std@@@std@@XZ
    ?GetDataFormat@FRMA@ISOBMFF@@QEBA?AV?$basic_string@DU?$char_traits@D@std@@V?$allocator@D@2@@std@@XZ
    ?GetDataReferenceIndex@Item@ILOC@ISOBMFF@@QEBAGXZ
    ?GetDisplayHeight@ISPE@ISOBMFF@@QEBAIXZ
    ?GetDisplayWidth@ISPE@ISOBMFF@@QEBAIXZ
    ?GetDisplayableObjects@Array@HVCC@ISOBMFF@@UEBA?AV?$vector@V?$shared_ptr@VDisplayableObject@ISOBMFF@@@std@@V?$allocator@V?$shared_ptr@VDisplayableObject@ISOBMFF@@@std@@@2@@std@@XZ
    ?GetDisplayableObjects@Entry@IPMA@ISOBMFF@@UEBA?AV?$vector@V?$shared_ptr@VDisplayableObject@ISOBMFF@@@std@@V?$allocator@V?$shared_ptr@VDisplayableObject@ISOBMFF@@@std@@@2@@std@@XZ
    ?GetDisplayableObjects@HVCC@ISOBMFF@@UEBA?AV?$vector@V?$shared_ptr@VDisplayableObject@ISOBMFF@@@std@@V?$allocator@V?$shared_ptr@VDisplayableObject@ISOBMFF@@@std@@@2@@std@@XZ
    ?GetDisplayableObjects@ILOC@ISOBMFF@@UEBA?AV?$vector@V?$shared_ptr@VDisplayableObject@ISOBMFF@@@std@@V?$allocator@V?$shared_ptr@VDisplayableObject@ISOBMFF@@@std@@@2@@std@@XZ
    ?GetDisplayableObjects@IPMA@ISOBMFF@@UEBA?AV?$vector@V?$shared_ptr@VDisplayableObject@ISOBMFF@@@std@@V?$allocator@V?$shared_ptr@VDisplayableObject@ISOBMFF@@@std@@@2@@std@@XZ
    ?GetDisplayableObjects@Item@ILOC@ISOBMFF@@UEBA?AV?$vector@V?$shared_ptr@VDisplayableObject@ISOBMFF@@@std@@V?$allocator@V?$shared_ptr@VDisplayableObject@ISOBMFF@@@std@@@2@@std@@XZ
    ?GetDisplayableObjects@PIXI@ISOBMFF@@UEBA?AV?$vector@V?$shared_ptr@VDisplayableObject@ISOBMFF@@@std@@V?$allocator@V?$shared_ptr@VDisplayableObject@ISOBMFF@@@std@@@2@@std@@XZ
    ?GetDisplayableProperties@Array@HVCC@ISOBMFF@@UEBA?AV?$vector@U?$pair@V?$basic_string@DU?$char_traits@D@std@@V?$allocator@D@2@@std@@V12@@std@@V?$allocator@U?$pair@V?$basic_string@DU?$char_traits@D@std@@V?$allocator@D@2@@std@@V12@@std@@@2@@std@@XZ
    ?GetDisplayableProperties@Association@Entry@IPMA@ISOBMFF@@UEBA?AV?$vector@U?$pair@V?$basic_string@DU?$char_traits@D@std@@V?$allocator@D@2@@std@@V12@@std@@V?$allocator@U?$pair@V?$basic_string@DU?$char_traits@D@std@@V?$allocator@D@2@@std@@V12@@std@@@2@@std@@XZ
    ?GetDisplayableProperties@Box@ISOBMFF@@UEBA?AV?$vector@U?$pair@V?$basic_string@DU?$char_traits@D@std@@V?$allocator@D@2@@std@@V12@@std@@V?$allocator@U?$pair@V?$basic_string@DU?$char_traits@D@std@@V?$allocator@D@2@@std@@V12@@std@@@2@@std@@XZ
    ?GetDisplayableProperties@COLR@ISOBMFF@@UEBA?AV?$vector@U?$pair@V?$basic_string@DU?$char_traits@D@std@@V?$allocator@D@2@@std@@V12@@std@@V?$allocator@U?$pair@V?$basic_string@DU?$char_traits@D@std@@V?$allocator@D@2@@std@@V12@@std@@@2@@std@@XZ
    ?GetDisplayableProperties@Channel@PIXI@ISOBMFF@@UEBA?AV?$vector@U?$pair@V?$basic_string@DU?$char_traits@D@std@@V?$allocator@D@2@@std@@V12@@std@@V?$allocator@U?$pair@V?$basic_string@DU?$char_traits@D@std@@V?$allocator@D@2@@std@@V12@@std@@@2@@std@@XZ
    ?GetDisplayableProperties@DisplayableObject@ISOBMFF@@UEBA?AV?$vector@U?$pair@V?$basic_string@DU?$char_traits@D@std@@V?$allocator@D@2@@std@@V12@@std@@V?$allocator@U?$pair@V?$basic_string@DU?$char_traits@D@std@@V?$allocator@D@2@@std@@V12@@std@@@2@@std@@XZ
    ?GetDisplayableProperties@Entry@IPMA@ISOBMFF@@UEBA?AV?$vector@U?$pair@V?$basic_string@DU?$char_traits@D@std@@V?$allocator@D@2@@std@@V12@@std@@V?$allocator@U?$pair@V?$basic_string@DU?$char_traits@D@std@@V?$allocator@D@2@@std@@V12@@std@@@2@@std@@XZ
    ?GetDisplayableProperties@Extent@Item@ILOC@ISOBMFF@@UEBA?AV?$vector@U?$pair@V?$basic_string@DU?$char_traits@D@std@@V?$allocator@D@2@@std@@V12@@std@@V?$allocator@U?$pair@V?$basic_string@DU?$char_traits@D@std@@V?$allocator@D@2@@std@@V12@@std@@@2@@std@@XZ
    ?GetDisplayableProperties@FRMA@ISOBMFF@@UEBA?AV?$vector@U?$pair@V?$basic_string@DU?$char_traits@D@std@@V?$allocator@D@2@@std@@V12@@std@@V?$allocator@U?$pair@V?$basic_string@DU?$char_traits@D@std@@V?$allocator@D@2@@std@@V12@@std@@@2@@std@@XZ
    ?GetDisplayableProperties@FTYP@ISOBMFF@@UEBA?AV?$vector@U?$pair@V?$basic_string@DU?$char_traits@D@std@@V?$allocator@D@2@@std@@V12@@std@@V?$allocator@U?$pair@V?$basic_string@DU?$char_traits@D@std@@V?$allocator@D@2@@std@@V12@@std@@@2@@std@@XZ
    ?GetDisplayableProperties@FullBox@ISOBMFF@@UEBA?AV?$vector@U?$pair@V?$basic_string@DU?$char_traits@D@std@@V?$allocator@D@2@@std@@V12@@std@@V?$allocator@U?$pair@V?$basic_string@DU?$char_traits@D@std@@V?$allocator@D@2@@std@@V12@@std@@@2@@std@@XZ
    ?GetDisplayableProperties@HDLR@ISOBMFF@@UEBA?AV?$vector@U?$pair@V?$basic_string@DU?$char_traits@D@std@@V?$allocator@D@2@@std@@V12@@std@@V?$allocator@U?$pair@V?$basic_string@DU?$char_traits@D@std@@V?$allocator@D@2@@std@@V12@@std@@@2@@std@@XZ
    ?GetDisplayableProperties@HVCC@ISOBMFF@@UEBA?AV?$vector@U?$pair@V?$basic_string@DU?$char_traits@D@std@@V?$allocator@D@2@@std@@V12@@std@@V?$allocator@U?$pair@V?$basic_string@DU?$char_traits@D@std@@V?$allocator@D@2@@std@@V12@@std@@@2@@std@@XZ
    ?GetDisplayableProperties@ILOC@ISOBMFF@@UEBA?AV?$vector@U?$pair@V?$basic_string@DU?$char_traits@D@std@@V?$allocator@D@2@@std@@V12@@std@@V?$allocator@U?$pair@V?$basic_string@DU?$char_traits@D@std@@V?$allocator@D@2@@std@@V12@@std@@@2@@std@@XZ
    ?GetDisplayableProperties@INFE@ISOBMFF@@UEBA?AV?$vector@U?$pair@V?$basic_string@DU?$char_traits@D@std@@V?$allocator@D@2@@std@@V12@@std@@V?$allocator@U?$pair@V?$basic_string@DU?$char_traits@D@std@@V?$allocator@D@2@@std@@V12@@std@@@2@@std@@XZ
    ?GetDisplayableProperties@IPMA@ISOBMFF@@UEBA?AV?$vector@U?$pair@V?$basic_string@DU?$char_traits@D@std@@V?$allocator@D@2@@std@@V12@@std@@V?$allocator@U?$pair@V?$basic_string@DU?$char_traits@D@std@@V?$allocator@D@2@@std@@V12@@std@@@2@@std@@XZ
    ?GetDisplayableProperties@IROT@ISOBMFF@@UEBA?AV?$vector@U?$pair@V?$basic_string@DU?$char_traits@D@std@@V?$allocator@D@2@@std@@V12@@std@@V?$allocator@U?$pair@V?$basic_string@DU?$char_traits@D@std@@V?$allocator@D@2@@std@@V12@@std@@@2@@std@@XZ
    ?GetDisplayableProperties@ISPE@ISOBMFF@@UEBA?AV?$vector@U?$pair@V?$basic_string@DU?$char_traits@D@std@@V?$allocator@D@2@@std@@V12@@std@@V?$allocator@U?$pair@V?$basic_string@DU?$char_traits@D@std@@V?$allocator@D@2@@std@@V12@@std@@@2@@std@@XZ
    ?GetDisplayableProperties@ImageGrid@ISOBMFF@@UEBA?AV?$vector@U?$pair@V?$basic_string@DU?$char_traits@D@std@@V?$allocator@D@2@@std@@V12@@std@@V?$allocator@U?$pair@V?$basic_string@DU?$char_traits@D@std@@V?$allocator@D@2@@std@@V12@@std@@@2@@std@@XZ
    ?GetDisplayableProperties@Item@ILOC@ISOBMFF@@UEBA?AV?$vector@U?$pair@V?$basic_string@DU?$char_traits@D@std@@V?$allocator@D@2@@std@@V12@@std@@V?$allocator@U?$pair@V?$basic_string@DU?$char_traits@D@std@@V?$allocator@D@2@@std@@V12@@std@@@2@@std@@XZ
    ?GetDisplayableProperties@MVHD@ISOBMFF@@UEBA?AV?$vector@U?$pair@V?$basic_string@DU?$char_traits@D@std@@V?$allocator@D@2@@std@@V12@@std@@V?$allocator@U?$pair@V?$basic_string@DU?$char_traits@D@std@@V?$allocator@D@2@@std@@V12@@std@@@2@@std@@XZ
    ?GetDisplayableProperties@Matrix@ISOBMFF@@UEBA?AV?$vector@U?$pair@V?$basic_string@DU?$char_traits@D@std@@V?$allocator@D@2@@std@@V12@@std@@V?$allocator@U?$pair@V?$basic_string@DU?$char_traits@D@std@@V?$allocator@D@2@@std@@V12@@std@@@2@@std@@XZ
    ?GetDisplayableProperties@NALUnit@Array@HVCC@ISOBMFF@@UEBA?AV?$vector@U?$pair@V?$basic_string@DU?$char_traits@D@std@@V?$allocator@D@2@@std@@V12@@std@@V?$allocator@U?$pair@V?$basic_string@DU?$char_traits@D@std@@V?$allocator@D@2@@std@@V12@@std@@@2@@std@@XZ
    ?GetDisplayableProperties@PITM@ISOBMFF@@UEBA?AV?$vector@U?$pair@V?$basic_string@DU?$char_traits@D@std@@V?$allocator@D@2@@std@@V12@@std@@V?$allocator@U?$pair@V?$basic_string@DU?$char_traits@D@std@@V?$allocator@D@2@@std@@V12@@std@@@2@@std@@XZ
    ?GetDisplayableProperties@PIXI@ISOBMFF@@UEBA?AV?$vector@U?$pair@V?$basic_string@DU?$char_traits@D@std@@V?$allocator@D@2@@std@@V12@@std@@V?$allocator@U?$pair@V?$basic_string@DU?$char_traits@D@std@@V?$allocator@D@2@@std@@V12@@std@@@2@@std@@XZ
    ?GetDisplayableProperties@SCHM@ISOBMFF@@UEBA?AV?$vector@U?$pair@V?$basic_string@DU?$char_traits@D@std@@V?$allocator@D@2@@std@@V12@@std@@V?$allocator@U?$pair@V?$basic_string@DU?$char_traits@D@std@@V?$allocator@D@2@@std@@V12@@std@@@2@@std@@XZ
    ?GetDisplayableProperties@SingleItemTypeReferenceBox@ISOBMFF@@UEBA?AV?$vector@U?$pair@V?$basic_string@DU?$char_traits@D@std@@V?$allocator@D@2@@std@@V12@@std@@V?$allocator@U?$pair@V?$basic_string@DU?$char_traits@D@std@@V?$allocator@D@2@@std@@V12@@std@@@2@@std@@XZ
    ?GetDisplayableProperties@TKHD@ISOBMFF@@UEBA?AV?$vector@U?$pair@V?$basic_string@DU?$char_traits@D@std@@V?$allocator@D@2@@std@@V12@@std@@V?$allocator@U?$pair@V?$basic_string@DU?$char_traits@D@std@@V?$allocator@D@2@@std@@V12@@std@@@2@@std@@XZ
    ?GetDuration@MVHD@ISOBMFF@@QEBA_KXZ
    ?GetDuration@TKHD@ISOBMFF@@QEBA_KXZ
    ?GetEntries@IINF@ISOBMFF@@QEBA?AV?$vector@V?$shared_ptr@VINFE@ISOBMFF@@@std@@V?$allocator@V?$shared_ptr@VINFE@ISOBMFF@@@std@@@2@@std@@XZ
    ?GetEntries@IPMA@ISOBMFF@@QEBA?AV?$vector@V?$shared_ptr@VEntry@IPMA@ISOBMFF@@@std@@V?$allocator@V?$shared_ptr@VEntry@IPMA@ISOBMFF@@@std@@@2@@std@@XZ
    ?GetEntry@IPMA@ISOBMFF@@QEBA?AV?$shared_ptr@VEntry@IPMA@ISOBMFF@@@std@@I@Z
    ?GetEssential@Association@Entry@IPMA@ISOBMFF@@QEBA_NXZ
    ?GetExtents@Item@ILOC@ISOBMFF@@QEBA?AV?$vector@V?$shared_ptr@VExtent@Item@ILOC@ISOBMFF@@@std@@V?$allocator@V?$shared_ptr@VExtent@Item@ILOC@ISOBMFF@@@std@@@2@@std@@XZ
    ?GetFile@Parser@ISOBMFF@@QEBA?AV?$shared_ptr@VFile@ISOBMFF@@@std@@XZ
    ?GetFlags@FullBox@ISOBMFF@@QEBAIXZ
    ?GetFlags@ImageGrid@ISOBMFF@@QEBAEXZ
    ?GetFromItemID@SingleItemTypeReferenceBox@ISOBMFF@@QEBAIXZ
    ?GetFullRangeFlag@COLR@ISOBMFF@@QEBA_NXZ
    ?GetGeneralConstraintIndicatorFlags@HVCC@ISOBMFF@@QEBA_KXZ
    ?GetGeneralLevelIDC@HVCC@ISOBMFF@@QEBAEXZ
    ?GetGeneralProfileCompatibilityFlags@HVCC@ISOBMFF@@QEBAIXZ
    ?GetGeneralProfileIDC@HVCC@ISOBMFF@@QEBAEXZ
    ?GetGeneralProfileSpace@HVCC@ISOBMFF@@QEBAEXZ
    ?GetGeneralTierFlag@HVCC@ISOBMFF@@QEBAEXZ
    ?GetHandlerName@HDLR@ISOBMFF@@QEBA?AV?$basic_string@DU?$char_traits@D@std@@V?$allocator@D@2@@std@@XZ
    ?GetHandlerType@HDLR@ISOBMFF@@QEBA?AV?$basic_string@DU?$char_traits@D@std@@V?$allocator@D@2@@std@@XZ
    ?GetHeight@TKHD@ISOBMFF@@QEBAMXZ
    ?GetICCProfile@COLR@ISOBMFF@@QEBA?AV?$vector@EV?$allocator@E@std@@@std@@XZ
    ?GetIndex@Extent@Item@ILOC@ISOBMFF@@QEBA_KXZ
    ?GetIndexSize@ILOC@ISOBMFF@@QEBAEXZ
    ?GetInfo@Parser@ISOBMFF@@QEAAPEBXAEBV?$basic_string@DU?$char_traits@D@std@@V?$allocator@D@2@@std@@@Z
    ?GetItem@ILOC@ISOBMFF@@QEBA?AV?$shared_ptr@VItem@ILOC@ISOBMFF@@@std@@I@Z
    ?GetItemID@Entry@IPMA@ISOBMFF@@QEBAIXZ
    ?GetItemID@INFE@ISOBMFF@@QEBAIXZ
    ?GetItemID@Item@ILOC@ISOBMFF@@QEBAIXZ
    ?GetItemID@PITM@ISOBMFF@@QEBAIXZ
    ?GetItemInfo@IINF@ISOBMFF@@QEBA?AV?$shared_ptr@VINFE@ISOBMFF@@@std@@I@Z
    ?GetItemName@INFE@ISOBMFF@@QEBA?AV?$basic_string@DU?$char_traits@D@std@@V?$allocator@D@2@@std@@XZ
    ?GetItemProtectionIndex@INFE@ISOBMFF@@QEBAGXZ
    ?GetItemType@INFE@ISOBMFF@@QEBA?AV?$basic_string@DU?$char_traits@D@std@@V?$allocator@D@2@@std@@XZ
    ?GetItemURIType@INFE@ISOBMFF@@QEBA?AV?$basic_string@DU?$char_traits@D@std@@V?$allocator@D@2@@std@@XZ
    ?GetItems@ILOC@ISOBMFF@@QEBA?AV?$vector@V?$shared_ptr@VItem@ILOC@ISOBMFF@@@std@@V?$allocator@V?$shared_ptr@VItem@ILOC@ISOBMFF@@@std@@@2@@std@@XZ
    ?GetLayer@TKHD@ISOBMFF@@QEBAGXZ
    ?GetLength@Extent@Item@ILOC@ISOBMFF@@QEBA_KXZ
    ?GetLengthSize@ILOC@ISOBMFF@@QEBAEXZ
    ?GetLengthSizeMinusOne@HVCC@ISOBMFF@@QEBAEXZ
    ?GetMajorBrand@FTYP@ISOBMFF@@QEBA?AV?$basic_string@DU?$char_traits@D@std@@V?$allocator@D@2@@std@@XZ
    ?GetMatrix@MVHD@ISOBMFF@@QEBA?AVMatrix@2@XZ
    ?GetMatrix@TKHD@ISOBMFF@@QEBA?AVMatrix@2@XZ
    ?GetMatrixCoefficients@COLR@ISOBMFF@@QEBAGXZ
    ?GetMinSpatialSegmentationIDC@HVCC@ISOBMFF@@QEBAGXZ
    ?GetMinorVersion@FTYP@ISOBMFF@@QEBAIXZ
    ?GetModificationTime@MVHD@ISOBMFF@@QEBA_KXZ
    ?GetModificationTime@TKHD@ISOBMFF@@QEBA_KXZ
    ?GetNALUnitType@Array@HVCC@ISOBMFF@@QEBAEXZ
    ?GetNALUnits@Array@HVCC@ISOBMFF@@QEBA?AV?$vector@V?$shared_ptr@VNALUnit@Array@HVCC@ISOBMFF@@@std@@V?$allocator@V?$shared_ptr@VNALUnit@Array@HVCC@ISOBMFF@@@std@@@2@@std@@XZ
    ?GetName@Array@HVCC@ISOBMFF@@UEBA?AV?$basic_string@DU?$char_traits@D@std@@V?$allocator@D@2@@std@@XZ
    ?GetName@Association@Entry@IPMA@ISOBMFF@@UEBA?AV?$basic_string@DU?$char_traits@D@std@@V?$allocator@D@2@@std@@XZ
    ?GetName@Box@ISOBMFF@@UEBA?AV?$basic_string@DU?$char_traits@D@std@@V?$allocator@D@2@@std@@XZ
    ?GetName@Channel@PIXI@ISOBMFF@@UEBA?AV?$basic_string@DU?$char_traits@D@std@@V?$allocator@D@2@@std@@XZ
    ?GetName@Entry@IPMA@ISOBMFF@@UEBA?AV?$basic_string@DU?$char_traits@D@std@@V?$allocator@D@2@@std@@XZ
    ?GetName@Extent@Item@ILOC@ISOBMFF@@UEBA?AV?$basic_string@DU?$char_traits@D@std@@V?$allocator@D@2@@std@@XZ
    ?GetName@File@ISOBMFF@@UEBA?AV?$basic_string@DU?$char_traits@D@std@@V?$allocator@D@2@@std@@XZ
    ?GetName@ImageGrid@ISOBMFF@@UEBA?AV?$basic_string@DU?$char_traits@D@std@@V?$allocator@D@2@@std@@XZ
    ?GetName@Item@ILOC@ISOBMFF@@UEBA?AV?$basic_string@DU?$char_traits@D@std@@V?$allocator@D@2@@std@@XZ
    ?GetName@Matrix@ISOBMFF@@UEBA?AV?$basic_string@DU?$char_traits@D@std@@V?$allocator@D@2@@std@@XZ
    ?GetName@NALUnit@Array@HVCC@ISOBMFF@@UEBA?AV?$basic_string@DU?$char_traits@D@std@@V?$allocator@D@2@@std@@XZ
    ?GetNextTrackID@MVHD@ISOBMFF@@QEBAIXZ
    ?GetNumTemporalLayers@HVCC@ISOBMFF@@QEBAEXZ
    ?GetOffset@Extent@Item@ILOC@ISOBMFF@@QEBA_KXZ
    ?GetOffsetSize@ILOC@ISOBMFF@@QEBAEXZ
    ?GetOptions@Parser@ISOBMFF@@QEBA_KXZ
    ?GetOutputHeight@ImageGrid@ISOBMFF@@QEBA_KXZ
    ?GetOutputWidth@ImageGrid@ISOBMFF@@QEBA_KXZ
    ?GetParallelismType@HVCC@ISOBMFF@@QEBAEXZ
    ?GetPreferredStringType@Parser@ISOBMFF@@QEBA?AW4StringType@12@XZ
    ?GetProperties@IPCO@ISOBMFF@@QEBA?AV?$vector@V?$shared_ptr@VBox@ISOBMFF@@@std@@V?$allocator@V?$shared_ptr@VBox@ISOBMFF@@@std@@@2@@std@@AEBVEntry@IPMA@2@@Z
    ?GetProperty@IPCO@ISOBMFF@@QEBA?AV?$shared_ptr@VBox@ISOBMFF@@@std@@AEBVAssociation@Entry@IPMA@2@@Z
    ?GetPropertyAtIndex@IPCO@ISOBMFF@@QEBA?AV?$shared_ptr@VBox@ISOBMFF@@@std@@_K@Z
    ?GetPropertyIndex@Association@Entry@IPMA@ISOBMFF@@QEBAGXZ
    ?GetRate@MVHD@ISOBMFF@@QEBAIXZ
    ?GetRows@ImageGrid@ISOBMFF@@QEBAEXZ
    ?GetSchemeType@SCHM@ISOBMFF@@QEBA?AV?$basic_string@DU?$char_traits@D@std@@V?$allocator@D@2@@std@@XZ
    ?GetSchemeURI@SCHM@ISOBMFF@@QEBA?AV?$basic_string@DU?$char_traits@D@std@@V?$allocator@D@2@@std@@XZ
    ?GetSchemeVersion@SCHM@ISOBMFF@@QEBAIXZ
    ?GetTemporalIdNested@HVCC@ISOBMFF@@QEBAEXZ
    ?GetTimescale@MVHD@ISOBMFF@@QEBAIXZ
    ?GetToItemIDs@SingleItemTypeReferenceBox@ISOBMFF@@QEBA?AV?$vector@IV?$allocator@I@std@@@std@@XZ
    ?GetTrackID@TKHD@ISOBMFF@@QEBAIXZ
    ?GetTransferCharacteristics@COLR@ISOBMFF@@QEBAGXZ
    ?GetU@Matrix@ISOBMFF@@QEBAIXZ
    ?GetV@Matrix@ISOBMFF@@QEBAIXZ
    ?GetVersion@FullBox@ISOBMFF@@QEBAEXZ
    ?GetVersion@ImageGrid@ISOBMFF@@QEBAEXZ
    ?GetVolume@MVHD@ISOBMFF@@QEBAGXZ
    ?GetVolume@TKHD@ISOBMFF@@QEBAGXZ
    ?GetW@Matrix@ISOBMFF@@QEBAIXZ
    ?GetWidth@TKHD@ISOBMFF@@QEBAMXZ
    ?GetX@Matrix@ISOBMFF@@QEBAIXZ
    ?GetY@Matrix@ISOBMFF@@QEBAIXZ
    ?HasBytesAvailable@BinaryStream@ISOBMFF@@QEBA_NXZ
    ?HasOption@Parser@ISOBMFF@@QEAA_NW4Options@12@@Z
    ?Pad@Utils@ISOBMFF@@YA?AV?$basic_string@DU?$char_traits@D@std@@V?$allocator@D@2@@std@@AEBV34@_K@Z
    ?Parse@Parser@ISOBMFF@@QEAAXAEBV?$basic_string@DU?$char_traits@D@std@@V?$allocator@D@2@@std@@@Z
    ?Read@BinaryStream@ISOBMFF@@QEAAXPEAE_K@Z
    ?ReadAllData@BinaryStream@ISOBMFF@@QEAA?AV?$vector@EV?$allocator@E@std@@@std@@XZ
    ?ReadBigEndianFixedPoint@BinaryStream@ISOBMFF@@QEAAMII@Z
    ?ReadBigEndianUInt16@BinaryStream@ISOBMFF@@QEAAGXZ
    ?ReadBigEndianUInt32@BinaryStream@ISOBMFF@@QEAAIXZ
    ?ReadBigEndianUInt64@BinaryStream@ISOBMFF@@QEAA_KXZ
    ?ReadData@Box@ISOBMFF@@UEAAXAEAVParser@2@AEAVBinaryStream@2@@Z
    ?ReadData@COLR@ISOBMFF@@UEAAXAEAVParser@2@AEAVBinaryStream@2@@Z
    ?ReadData@ContainerBox@ISOBMFF@@UEAAXAEAVParser@2@AEAVBinaryStream@2@@Z
    ?ReadData@DREF@ISOBMFF@@UEAAXAEAVParser@2@AEAVBinaryStream@2@@Z
    ?ReadData@FRMA@ISOBMFF@@UEAAXAEAVParser@2@AEAVBinaryStream@2@@Z
    ?ReadData@FTYP@ISOBMFF@@UEAAXAEAVParser@2@AEAVBinaryStream@2@@Z
    ?ReadData@FullBox@ISOBMFF@@UEAAXAEAVParser@2@AEAVBinaryStream@2@@Z
    ?ReadData@HDLR@ISOBMFF@@UEAAXAEAVParser@2@AEAVBinaryStream@2@@Z
    ?ReadData@HVCC@ISOBMFF@@UEAAXAEAVParser@2@AEAVBinaryStream@2@@Z
    ?ReadData@IINF@ISOBMFF@@UEAAXAEAVParser@2@AEAVBinaryStream@2@@Z
    ?ReadData@ILOC@ISOBMFF@@UEAAXAEAVParser@2@AEAVBinaryStream@2@@Z
    ?ReadData@INFE@ISOBMFF@@UEAAXAEAVParser@2@AEAVBinaryStream@2@@Z
    ?ReadData@IPMA@ISOBMFF@@UEAAXAEAVParser@2@AEAVBinaryStream@2@@Z
    ?ReadData@IREF@ISOBMFF@@UEAAXAEAVParser@2@AEAVBinaryStream@2@@Z
    ?ReadData@IROT@ISOBMFF@@UEAAXAEAVParser@2@AEAVBinaryStream@2@@Z
    ?ReadData@ISPE@ISOBMFF@@UEAAXAEAVParser@2@AEAVBinaryStream@2@@Z
    ?ReadData@META@ISOBMFF@@UEAAXAEAVParser@2@AEAVBinaryStream@2@@Z
    ?ReadData@MVHD@ISOBMFF@@UEAAXAEAVParser@2@AEAVBinaryStream@2@@Z
    ?ReadData@PITM@ISOBMFF@@UEAAXAEAVParser@2@AEAVBinaryStream@2@@Z
    ?ReadData@PIXI@ISOBMFF@@UEAAXAEAVParser@2@AEAVBinaryStream@2@@Z
    ?ReadData@SCHM@ISOBMFF@@UEAAXAEAVParser@2@AEAVBinaryStream@2@@Z
    ?ReadData@STSD@ISOBMFF@@UEAAXAEAVParser@2@AEAVBinaryStream@2@@Z
    ?ReadData@SingleItemTypeReferenceBox@ISOBMFF@@UEAAXAEAVParser@2@AEAVBinaryStream@2@@Z
    ?ReadData@TKHD@ISOBMFF@@UEAAXAEAVParser@2@AEAVBinaryStream@2@@Z
    ?ReadFourCC@BinaryStream@ISOBMFF@@QEAA?AV?$basic_string@DU?$char_traits@D@std@@V?$allocator@D@2@@std@@XZ
    ?ReadInt16@BinaryStream@ISOBMFF@@QEAAFXZ
    ?ReadInt32@BinaryStream@ISOBMFF@@QEAAHXZ
    ?ReadInt64@BinaryStream@ISOBMFF@@QEAA_JXZ
    ?ReadInt8@BinaryStream@ISOBMFF@@QEAACXZ
    ?ReadLittleEndianFixedPoint@BinaryStream@ISOBMFF@@QEAAMII@Z
    ?ReadLittleEndianUInt16@BinaryStream@ISOBMFF@@QEAAGXZ
    ?ReadLittleEndianUInt32@BinaryStream@ISOBMFF@@QEAAIXZ
    ?ReadLittleEndianUInt64@BinaryStream@ISOBMFF@@QEAA_KXZ
    ?ReadMatrix@BinaryStream@ISOBMFF@@QEAA?AVMatrix@2@XZ
    ?ReadNULLTerminatedString@BinaryStream@ISOBMFF@@QEAA?AV?$basic_string@DU?$char_traits@D@std@@V?$allocator@D@2@@std@@XZ
    ?ReadPascalString@BinaryStream@ISOBMFF@@QEAA?AV?$basic_string@DU?$char_traits@D@std@@V?$allocator@D@2@@std@@XZ
    ?ReadUInt16@BinaryStream@ISOBMFF@@QEAAGXZ
    ?ReadUInt32@BinaryStream@ISOBMFF@@QEAAIXZ
    ?ReadUInt64@BinaryStream@ISOBMFF@@QEAA_KXZ
    ?ReadUInt8@BinaryStream@ISOBMFF@@QEAAEXZ
    ?RegisterBox@Parser@ISOBMFF@@QEAAXAEBV?$basic_string@DU?$char_traits@D@std@@V?$allocator@D@2@@std@@AEBV?$function@$$A6A?AV?$shared_ptr@VBox@ISOBMFF@@@std@@XZ@4@@Z
    ?RegisterContainerBox@Parser@ISOBMFF@@QEAAXAEBV?$basic_string@DU?$char_traits@D@std@@V?$allocator@D@2@@std@@@Z
    ?RemoveOption@Parser@ISOBMFF@@QEAAXW4Options@12@@Z
    ?SetA@Matrix@ISOBMFF@@QEAAXI@Z
    ?SetAlternateGroup@TKHD@ISOBMFF@@QEAAXG@Z
    ?SetAngle@IROT@ISOBMFF@@QEBAXE@Z
    ?SetArrayCompleteness@Array@HVCC@ISOBMFF@@QEAAX_N@Z
    ?SetAvgFrameRate@HVCC@ISOBMFF@@QEAAXG@Z
    ?SetB@Matrix@ISOBMFF@@QEAAXI@Z
    ?SetBaseOffset@Item@ILOC@ISOBMFF@@QEAAX_K@Z
    ?SetBaseOffsetSize@ILOC@ISOBMFF@@QEAAXE@Z
    ?SetBitDepthChromaMinus8@HVCC@ISOBMFF@@QEAAXE@Z
    ?SetBitDepthLumaMinus8@HVCC@ISOBMFF@@QEAAXE@Z
    ?SetBitsPerChannel@Channel@PIXI@ISOBMFF@@QEAAXE@Z
    ?SetC@Matrix@ISOBMFF@@QEAAXI@Z
    ?SetChromaFormat@HVCC@ISOBMFF@@QEAAXE@Z
    ?SetColourPrimaries@COLR@ISOBMFF@@QEAAXG@Z
    ?SetColourType@COLR@ISOBMFF@@QEAAXAEBV?$basic_string@DU?$char_traits@D@std@@V?$allocator@D@2@@std@@@Z
    ?SetColumns@ImageGrid@ISOBMFF@@QEAAXE@Z
    ?SetCompatibleBrands@FTYP@ISOBMFF@@QEAAXAEBV?$vector@V?$basic_string@DU?$char_traits@D@std@@V?$allocator@D@2@@std@@V?$allocator@V?$basic_string@DU?$char_traits@D@std@@V?$allocator@D@2@@std@@@2@@std@@@Z
    ?SetConfigurationVersion@HVCC@ISOBMFF@@QEAAXE@Z
    ?SetConstantFrameRate@HVCC@ISOBMFF@@QEAAXE@Z
    ?SetConstructionMethod@Item@ILOC@ISOBMFF@@QEAAXE@Z
    ?SetContentEncoding@INFE@ISOBMFF@@QEAAXAEBV?$basic_string@DU?$char_traits@D@std@@V?$allocator@D@2@@std@@@Z
    ?SetContentType@INFE@ISOBMFF@@QEAAXAEBV?$basic_string@DU?$char_traits@D@std@@V?$allocator@D@2@@std@@@Z
    ?SetCreationTime@MVHD@ISOBMFF@@QEAAX_K@Z
    ?SetCreationTime@TKHD@ISOBMFF@@QEAAX_K@Z
    ?SetD@Matrix@ISOBMFF@@QEAAXI@Z
    ?SetData@NALUnit@Array@HVCC@ISOBMFF@@QEAAXAEBV?$vector@EV?$allocator@E@std@@@std@@@Z
    ?SetDataFormat@FRMA@ISOBMFF@@QEAAXAEBV?$basic_string@DU?$char_traits@D@std@@V?$allocator@D@2@@std@@@Z
    ?SetDataReferenceIndex@Item@ILOC@ISOBMFF@@QEAAXG@Z
    ?SetDisplayHeight@ISPE@ISOBMFF@@QEAAXI@Z
    ?SetDisplayWidth@ISPE@ISOBMFF@@QEAAXI@Z
    ?SetDuration@MVHD@ISOBMFF@@QEAAX_K@Z
    ?SetDuration@TKHD@ISOBMFF@@QEAAX_K@Z
    ?SetEssential@Association@Entry@IPMA@ISOBMFF@@QEAAX_N@Z
    ?SetFlags@FullBox@ISOBMFF@@QEAAXI@Z
    ?SetFlags@ImageGrid@ISOBMFF@@QEAAXE@Z
    ?SetFromItemID@SingleItemTypeReferenceBox@ISOBMFF@@QEAAXI@Z
    ?SetFullRangeFlag@COLR@ISOBMFF@@QEAAX_N@Z
    ?SetGeneralConstraintIndicatorFlags@HVCC@ISOBMFF@@QEAAX_K@Z
    ?SetGeneralLevelIDC@HVCC@ISOBMFF@@QEAAXE@Z
    ?SetGeneralProfileCompatibilityFlags@HVCC@ISOBMFF@@QEAAXI@Z
    ?SetGeneralProfileIDC@HVCC@ISOBMFF@@QEAAXE@Z
    ?SetGeneralProfileSpace@HVCC@ISOBMFF@@QEAAXE@Z
    ?SetGeneralTierFlag@HVCC@ISOBMFF@@QEAAXE@Z
    ?SetHandlerName@HDLR@ISOBMFF@@QEAAXAEBV?$basic_string@DU?$char_traits@D@std@@V?$allocator@D@2@@std@@@Z
    ?SetHandlerType@HDLR@ISOBMFF@@QEAAXAEBV?$basic_string@DU?$char_traits@D@std@@V?$allocator@D@2@@std@@@Z
    ?SetHeight@TKHD@ISOBMFF@@QEAAXM@Z
    ?SetICCProfile@COLR@ISOBMFF@@QEAAXAEBV?$vector@EV?$allocator@E@std@@@std@@@Z
    ?SetIndex@Extent@Item@ILOC@ISOBMFF@@QEAAX_K@Z
    ?SetIndexSize@ILOC@ISOBMFF@@QEAAXE@Z
    ?SetInfo@Parser@ISOBMFF@@QEAAXAEBV?$basic_string@DU?$char_traits@D@std@@V?$allocator@D@2@@std@@PEAX@Z
    ?SetItemID@Entry@IPMA@ISOBMFF@@QEAAXI@Z
    ?SetItemID@INFE@ISOBMFF@@QEAAXI@Z
    ?SetItemID@Item@ILOC@ISOBMFF@@QEAAXI@Z
    ?SetItemID@PITM@ISOBMFF@@QEAAXI@Z
    ?SetItemName@INFE@ISOBMFF@@QEAAXAEBV?$basic_string@DU?$char_traits@D@std@@V?$allocator@D@2@@std@@@Z
    ?SetItemProtectionIndex@INFE@ISOBMFF@@QEAAXG@Z
    ?SetItemType@INFE@ISOBMFF@@QEAAXAEBV?$basic_string@DU?$char_traits@D@std@@V?$allocator@D@2@@std@@@Z
    ?SetItemURIType@INFE@ISOBMFF@@QEAAXAEBV?$basic_string@DU?$char_traits@D@std@@V?$allocator@D@2@@std@@@Z
    ?SetLayer@TKHD@ISOBMFF@@QEAAXG@Z
    ?SetLength@Extent@Item@ILOC@ISOBMFF@@QEAAX_K@Z
    ?SetLengthSize@ILOC@ISOBMFF@@QEAAXE@Z
    ?SetLengthSizeMinusOne@HVCC@ISOBMFF@@QEAAXE@Z
    ?SetMajorBrand@FTYP@ISOBMFF@@QEAAXAEBV?$basic_string@DU?$char_traits@D@std@@V?$allocator@D@2@@std@@@Z
    ?SetMatrix@MVHD@ISOBMFF@@QEAAXAEBVMatrix@2@@Z
    ?SetMatrix@TKHD@ISOBMFF@@QEAAXVMatrix@2@@Z
    ?SetMatrixCoefficients@COLR@ISOBMFF@@QEAAXG@Z
    ?SetMinSpatialSegmentationIDC@HVCC@ISOBMFF@@QEAAXG@Z
    ?SetMinorVersion@FTYP@ISOBMFF@@QEAAXI@Z
    ?SetModificationTime@MVHD@ISOBMFF@@QEAAX_K@Z
    ?SetModificationTime@TKHD@ISOBMFF@@QEAAX_K@Z
    ?SetNALUnitType@Array@HVCC@ISOBMFF@@QEAAXE@Z
    ?SetNextTrackID@MVHD@ISOBMFF@@QEAAXI@Z
    ?SetNumTemporalLayers@HVCC@ISOBMFF@@QEAAXE@Z
    ?SetOffset@Extent@Item@ILOC@ISOBMFF@@QEAAX_K@Z
    ?SetOffsetSize@ILOC@ISOBMFF@@QEAAXE@Z
    ?SetOptions@Parser@ISOBMFF@@QEAAX_K@Z
    ?SetOutputHeight@ImageGrid@ISOBMFF@@QEAAX_K@Z
    ?SetOutputWidth@ImageGrid@ISOBMFF@@QEAAX_K@Z
    ?SetParallelismType@HVCC@ISOBMFF@@QEAAXE@Z
    ?SetPreferredStringType@Parser@ISOBMFF@@QEAAXW4StringType@12@@Z
    ?SetPropertyIndex@Association@Entry@IPMA@ISOBMFF@@QEAAXG@Z
    ?SetRate@MVHD@ISOBMFF@@QEAAXI@Z
    ?SetRows@ImageGrid@ISOBMFF@@QEAAXE@Z
    ?SetSchemeType@SCHM@ISOBMFF@@QEAAXAEBV?$basic_string@DU?$char_traits@D@std@@V?$allocator@D@2@@std@@@Z
    ?SetSchemeURI@SCHM@ISOBMFF@@QEAAXAEBV?$basic_string@DU?$char_traits@D@std@@V?$allocator@D@2@@std@@@Z
    ?SetSchemeVersion@SCHM@ISOBMFF@@QEAAXI@Z
    ?SetTemporalIdNested@HVCC@ISOBMFF@@QEAAXE@Z
    ?SetTimescale@MVHD@ISOBMFF@@QEAAXI@Z
    ?SetTrackID@TKHD@ISOBMFF@@QEAAXI@Z
    ?SetTransferCharacteristics@COLR@ISOBMFF@@QEAAXG@Z
    ?SetU@Matrix@ISOBMFF@@QEAAXI@Z
    ?SetV@Matrix@ISOBMFF@@QEAAXI@Z
    ?SetVersion@FullBox@ISOBMFF@@QEAAXE@Z
    ?SetVersion@ImageGrid@ISOBMFF@@QEAAXE@Z
    ?SetVolume@MVHD@ISOBMFF@@QEAAXG@Z
    ?SetVolume@TKHD@ISOBMFF@@QEAAXG@Z
    ?SetW@Matrix@ISOBMFF@@QEAAXI@Z
    ?SetWidth@TKHD@ISOBMFF@@QEAAXM@Z
    ?SetX@Matrix@ISOBMFF@@QEAAXI@Z
    ?SetY@Matrix@ISOBMFF@@QEAAXI@Z
    ?StringToWideString@ISOBMFF@@YA?AV?$basic_string@_WU?$char_traits@_W@std@@V?$allocator@_W@2@@std@@AEBV?$basic_string@DU?$char_traits@D@std@@V?$allocator@D@2@@3@@Z
    ?ToHexString@Utils@ISOBMFF@@YA?AV?$basic_string@DU?$char_traits@D@std@@V?$allocator@D@2@@std@@E@Z
    ?ToHexString@Utils@ISOBMFF@@YA?AV?$basic_string@DU?$char_traits@D@std@@V?$allocator@D@2@@std@@G@Z
    ?ToHexString@Utils@ISOBMFF@@YA?AV?$basic_string@DU?$char_traits@D@std@@V?$allocator@D@2@@std@@I@Z
    ?ToHexString@Utils@ISOBMFF@@YA?AV?$basic_string@DU?$char_traits@D@std@@V?$allocator@D@2@@std@@_K@Z
    ?ToString@DisplayableObject@ISOBMFF@@UEBA?AV?$basic_string@DU?$char_traits@D@std@@V?$allocator@D@2@@std@@XZ
    ?ToString@Utils@ISOBMFF@@YA?AV?$basic_string@DU?$char_traits@D@std@@V?$allocator@D@2@@std@@AEBV?$vector@V?$basic_string@DU?$char_traits@D@std@@V?$allocator@D@2@@std@@V?$allocator@V?$basic_string@DU?$char_traits@D@std@@V?$allocator@D@2@@std@@@2@@4@@Z
    ?WideStringToString@ISOBMFF@@YA?AV?$basic_string@DU?$char_traits@D@std@@V?$allocator@D@2@@std@@AEBV?$basic_string@_WU?$char_traits@_W@std@@V?$allocator@_W@2@@3@@Z
    ?WriteBoxes@Container@ISOBMFF@@QEBAXAEAV?$basic_ostream@DU?$char_traits@D@std@@@std@@_K@Z
    ?WriteBoxes@Container@ISOBMFF@@SAXAEBV?$vector@V?$shared_ptr@VBox@ISOBMFF@@@std@@V?$allocator@V?$shared_ptr@VBox@ISOBMFF@@@std@@@2@@std@@AEAV?$basic_ostream@DU?$char_traits@D@std@@@4@_K@Z
    ?WriteDescription@Array@HVCC@ISOBMFF@@UEBAXAEAV?$basic_ostream@DU?$char_traits@D@std@@@std@@_K@Z
    ?WriteDescription@ContainerBox@ISOBMFF@@UEBAXAEAV?$basic_ostream@DU?$char_traits@D@std@@@std@@_K@Z
    ?WriteDescription@DREF@ISOBMFF@@UEBAXAEAV?$basic_ostream@DU?$char_traits@D@std@@@std@@_K@Z
    ?WriteDescription@DisplayableObject@ISOBMFF@@UEBAXAEAV?$basic_ostream@DU?$char_traits@D@std@@@std@@_K@Z
    ?WriteDescription@DisplayableObjectContainer@ISOBMFF@@UEBAXAEAV?$basic_ostream@DU?$char_traits@D@std@@@std@@_K@Z
    ?WriteDescription@Entry@IPMA@ISOBMFF@@UEBAXAEAV?$basic_ostream@DU?$char_traits@D@std@@@std@@_K@Z
    ?WriteDescription@HVCC@ISOBMFF@@UEBAXAEAV?$basic_ostream@DU?$char_traits@D@std@@@std@@_K@Z
    ?WriteDescription@IINF@ISOBMFF@@UEBAXAEAV?$basic_ostream@DU?$char_traits@D@std@@@std@@_K@Z
    ?WriteDescription@ILOC@ISOBMFF@@UEBAXAEAV?$basic_ostream@DU?$char_traits@D@std@@@std@@_K@Z
    ?WriteDescription@IPMA@ISOBMFF@@UEBAXAEAV?$basic_ostream@DU?$char_traits@D@std@@@std@@_K@Z
    ?WriteDescription@IREF@ISOBMFF@@UEBAXAEAV?$basic_ostream@DU?$char_traits@D@std@@@std@@_K@Z
    ?WriteDescription@Item@ILOC@ISOBMFF@@UEBAXAEAV?$basic_ostream@DU?$char_traits@D@std@@@std@@_K@Z
    ?WriteDescription@META@ISOBMFF@@UEBAXAEAV?$basic_ostream@DU?$char_traits@D@std@@@std@@_K@Z
    ?WriteDescription@Matrix@ISOBMFF@@UEBAXAEAV?$basic_ostream@DU?$char_traits@D@std@@@std@@_K@Z
    ?WriteDescription@PIXI@ISOBMFF@@UEBAXAEAV?$basic_ostream@DU?$char_traits@D@std@@@std@@_K@Z
    ?WriteDescription@STSD@ISOBMFF@@UEBAXAEAV?$basic_ostream@DU?$char_traits@D@std@@@std@@_K@Z
